ARM GAS  C:\Users\kotli\AppData\Local\Temp\ccncNj1u.s 			page 1


   1              		.syntax unified
   2              		.cpu cortex-m4
   3              		.eabi_attribute 27, 1
   4              		.fpu fpv4-sp-d16
   5              		.eabi_attribute 20, 1
   6              		.eabi_attribute 21, 1
   7              		.eabi_attribute 23, 3
   8              		.eabi_attribute 24, 1
   9              		.eabi_attribute 25, 1
  10              		.eabi_attribute 26, 1
  11              		.eabi_attribute 30, 1
  12              		.eabi_attribute 34, 1
  13              		.eabi_attribute 18, 4
  14              		.thumb
  15              		.syntax unified
  16              		.file	"APP_U.c"
  17              		.text
  18              	.Ltext0:
  19              		.cfi_sections	.debug_frame
  20              		.section	.text.Start_Interrapts,"ax",%progbits
  21              		.align	2
  22              		.global	Start_Interrapts
  23              		.thumb
  24              		.thumb_func
  25              		.type	Start_Interrapts, %function
  26              	Start_Interrapts:
  27              	.LFB321:
  28              		.file 1 "APP_U.c"
   1:APP_U.c       **** /* ========================================
   2:APP_U.c       ****  *
   3:APP_U.c       ****  * Copyright YOUR COMPANY, THE YEAR
   4:APP_U.c       ****  * All Rights Reserved
   5:APP_U.c       ****  * UNPUBLISHED, LICENSED SOFTWARE.
   6:APP_U.c       ****  *
   7:APP_U.c       ****  * CONFIDENTIAL AND PROPRIETARY INFORMATION
   8:APP_U.c       ****  * WHICH IS THE PROPERTY OF your company.
   9:APP_U.c       ****  *
  10:APP_U.c       ****  * ========================================
  11:APP_U.c       **** */
  12:APP_U.c       **** #include "project.h"
  13:APP_U.c       **** #include "Config_u.h"
  14:APP_U.c       **** #include "APP.h"
  15:APP_U.c       **** #include "CapSense_config_u.h"
  16:APP_U.c       **** #include "flash_config_u.h"
  17:APP_U.c       **** #include <stdlib.h>
  18:APP_U.c       **** #include <string.h>
  19:APP_U.c       **** void Start_Interrapts(void)
  20:APP_U.c       **** {
  29              		.loc 1 20 0
  30              		.cfi_startproc
  31              		@ args = 0, pretend = 0, frame = 0
  32              		@ frame_needed = 0, uses_anonymous_args = 0
  33 0000 08B5     		push	{r3, lr}
  34              		.cfi_def_cfa_offset 8
  35              		.cfi_offset 3, -8
  36              		.cfi_offset 14, -4
  37              	.LBB4:
ARM GAS  C:\Users\kotli\AppData\Local\Temp\ccncNj1u.s 			page 2


  38              	.LBB5:
  39              		.file 2 "Generated_Source\\PSoC6\\pdl\\cmsis/include/cmsis_gcc.h"
   1:Generated_Source\PSoC6\pdl\cmsis/include/cmsis_gcc.h **** /**************************************************************************//**
   2:Generated_Source\PSoC6\pdl\cmsis/include/cmsis_gcc.h ****  * @file     cmsis_gcc.h
   3:Generated_Source\PSoC6\pdl\cmsis/include/cmsis_gcc.h ****  * @brief    CMSIS compiler GCC header file
   4:Generated_Source\PSoC6\pdl\cmsis/include/cmsis_gcc.h ****  * @version  V5.0.1
   5:Generated_Source\PSoC6\pdl\cmsis/include/cmsis_gcc.h ****  * @date     02. February 2017
   6:Generated_Source\PSoC6\pdl\cmsis/include/cmsis_gcc.h ****  ******************************************************************************/
   7:Generated_Source\PSoC6\pdl\cmsis/include/cmsis_gcc.h **** /*
   8:Generated_Source\PSoC6\pdl\cmsis/include/cmsis_gcc.h ****  * Copyright (c) 2009-2017 ARM Limited. All rights reserved.
   9:Generated_Source\PSoC6\pdl\cmsis/include/cmsis_gcc.h ****  *
  10:Generated_Source\PSoC6\pdl\cmsis/include/cmsis_gcc.h ****  * SPDX-License-Identifier: Apache-2.0
  11:Generated_Source\PSoC6\pdl\cmsis/include/cmsis_gcc.h ****  *
  12:Generated_Source\PSoC6\pdl\cmsis/include/cmsis_gcc.h ****  * Licensed under the Apache License, Version 2.0 (the License); you may
  13:Generated_Source\PSoC6\pdl\cmsis/include/cmsis_gcc.h ****  * not use this file except in compliance with the License.
  14:Generated_Source\PSoC6\pdl\cmsis/include/cmsis_gcc.h ****  * You may obtain a copy of the License at
  15:Generated_Source\PSoC6\pdl\cmsis/include/cmsis_gcc.h ****  *
  16:Generated_Source\PSoC6\pdl\cmsis/include/cmsis_gcc.h ****  * www.apache.org/licenses/LICENSE-2.0
  17:Generated_Source\PSoC6\pdl\cmsis/include/cmsis_gcc.h ****  *
  18:Generated_Source\PSoC6\pdl\cmsis/include/cmsis_gcc.h ****  * Unless required by applicable law or agreed to in writing, software
  19:Generated_Source\PSoC6\pdl\cmsis/include/cmsis_gcc.h ****  * distributed under the License is distributed on an AS IS BASIS, WITHOUT
  20:Generated_Source\PSoC6\pdl\cmsis/include/cmsis_gcc.h ****  * WARRANTIES OR CONDITIONS OF ANY KIND, either express or implied.
  21:Generated_Source\PSoC6\pdl\cmsis/include/cmsis_gcc.h ****  * See the License for the specific language governing permissions and
  22:Generated_Source\PSoC6\pdl\cmsis/include/cmsis_gcc.h ****  * limitations under the License.
  23:Generated_Source\PSoC6\pdl\cmsis/include/cmsis_gcc.h ****  */
  24:Generated_Source\PSoC6\pdl\cmsis/include/cmsis_gcc.h **** 
  25:Generated_Source\PSoC6\pdl\cmsis/include/cmsis_gcc.h **** #ifndef __CMSIS_GCC_H
  26:Generated_Source\PSoC6\pdl\cmsis/include/cmsis_gcc.h **** #define __CMSIS_GCC_H
  27:Generated_Source\PSoC6\pdl\cmsis/include/cmsis_gcc.h **** 
  28:Generated_Source\PSoC6\pdl\cmsis/include/cmsis_gcc.h **** /* ignore some GCC warnings */
  29:Generated_Source\PSoC6\pdl\cmsis/include/cmsis_gcc.h **** #pragma GCC diagnostic push
  30:Generated_Source\PSoC6\pdl\cmsis/include/cmsis_gcc.h **** #pragma GCC diagnostic ignored "-Wsign-conversion"
  31:Generated_Source\PSoC6\pdl\cmsis/include/cmsis_gcc.h **** #pragma GCC diagnostic ignored "-Wconversion"
  32:Generated_Source\PSoC6\pdl\cmsis/include/cmsis_gcc.h **** #pragma GCC diagnostic ignored "-Wunused-parameter"
  33:Generated_Source\PSoC6\pdl\cmsis/include/cmsis_gcc.h **** 
  34:Generated_Source\PSoC6\pdl\cmsis/include/cmsis_gcc.h **** /* CMSIS compiler specific defines */
  35:Generated_Source\PSoC6\pdl\cmsis/include/cmsis_gcc.h **** #ifndef   __ASM
  36:Generated_Source\PSoC6\pdl\cmsis/include/cmsis_gcc.h ****   #define __ASM                     __asm
  37:Generated_Source\PSoC6\pdl\cmsis/include/cmsis_gcc.h **** #endif
  38:Generated_Source\PSoC6\pdl\cmsis/include/cmsis_gcc.h **** #ifndef   __INLINE
  39:Generated_Source\PSoC6\pdl\cmsis/include/cmsis_gcc.h ****   #define __INLINE                  inline
  40:Generated_Source\PSoC6\pdl\cmsis/include/cmsis_gcc.h **** #endif
  41:Generated_Source\PSoC6\pdl\cmsis/include/cmsis_gcc.h **** #ifndef   __STATIC_INLINE
  42:Generated_Source\PSoC6\pdl\cmsis/include/cmsis_gcc.h ****   #define __STATIC_INLINE           static inline
  43:Generated_Source\PSoC6\pdl\cmsis/include/cmsis_gcc.h **** #endif
  44:Generated_Source\PSoC6\pdl\cmsis/include/cmsis_gcc.h **** #ifndef   __NO_RETURN
  45:Generated_Source\PSoC6\pdl\cmsis/include/cmsis_gcc.h ****   #define __NO_RETURN               __attribute__((noreturn))
  46:Generated_Source\PSoC6\pdl\cmsis/include/cmsis_gcc.h **** #endif
  47:Generated_Source\PSoC6\pdl\cmsis/include/cmsis_gcc.h **** #ifndef   __USED
  48:Generated_Source\PSoC6\pdl\cmsis/include/cmsis_gcc.h ****   #define __USED                    __attribute__((used))
  49:Generated_Source\PSoC6\pdl\cmsis/include/cmsis_gcc.h **** #endif
  50:Generated_Source\PSoC6\pdl\cmsis/include/cmsis_gcc.h **** #ifndef   __WEAK
  51:Generated_Source\PSoC6\pdl\cmsis/include/cmsis_gcc.h ****   #define __WEAK                    __attribute__((weak))
  52:Generated_Source\PSoC6\pdl\cmsis/include/cmsis_gcc.h **** #endif
  53:Generated_Source\PSoC6\pdl\cmsis/include/cmsis_gcc.h **** #ifndef   __UNALIGNED_UINT32
  54:Generated_Source\PSoC6\pdl\cmsis/include/cmsis_gcc.h **** #pragma GCC diagnostic push
  55:Generated_Source\PSoC6\pdl\cmsis/include/cmsis_gcc.h **** #pragma GCC diagnostic ignored "-Wpacked"
ARM GAS  C:\Users\kotli\AppData\Local\Temp\ccncNj1u.s 			page 3


  56:Generated_Source\PSoC6\pdl\cmsis/include/cmsis_gcc.h **** #pragma GCC diagnostic ignored "-Wattributes"
  57:Generated_Source\PSoC6\pdl\cmsis/include/cmsis_gcc.h ****   struct __attribute__((packed)) T_UINT32 { uint32_t v; };
  58:Generated_Source\PSoC6\pdl\cmsis/include/cmsis_gcc.h **** #pragma GCC diagnostic pop
  59:Generated_Source\PSoC6\pdl\cmsis/include/cmsis_gcc.h ****   #define __UNALIGNED_UINT32(x)     (((struct T_UINT32 *)(x))->v)
  60:Generated_Source\PSoC6\pdl\cmsis/include/cmsis_gcc.h **** #endif
  61:Generated_Source\PSoC6\pdl\cmsis/include/cmsis_gcc.h **** #ifndef   __ALIGNED
  62:Generated_Source\PSoC6\pdl\cmsis/include/cmsis_gcc.h ****   #define __ALIGNED(x)              __attribute__((aligned(x)))
  63:Generated_Source\PSoC6\pdl\cmsis/include/cmsis_gcc.h **** #endif
  64:Generated_Source\PSoC6\pdl\cmsis/include/cmsis_gcc.h **** #ifndef   __PACKED
  65:Generated_Source\PSoC6\pdl\cmsis/include/cmsis_gcc.h ****   #define __PACKED                  __attribute__((packed, aligned(1)))
  66:Generated_Source\PSoC6\pdl\cmsis/include/cmsis_gcc.h **** #endif
  67:Generated_Source\PSoC6\pdl\cmsis/include/cmsis_gcc.h **** #ifndef   __PACKED_STRUCT
  68:Generated_Source\PSoC6\pdl\cmsis/include/cmsis_gcc.h ****   #define __PACKED_STRUCT           struct __attribute__((packed, aligned(1)))
  69:Generated_Source\PSoC6\pdl\cmsis/include/cmsis_gcc.h **** #endif
  70:Generated_Source\PSoC6\pdl\cmsis/include/cmsis_gcc.h **** 
  71:Generated_Source\PSoC6\pdl\cmsis/include/cmsis_gcc.h **** 
  72:Generated_Source\PSoC6\pdl\cmsis/include/cmsis_gcc.h **** /* ###########################  Core Function Access  ########################### */
  73:Generated_Source\PSoC6\pdl\cmsis/include/cmsis_gcc.h **** /** \ingroup  CMSIS_Core_FunctionInterface
  74:Generated_Source\PSoC6\pdl\cmsis/include/cmsis_gcc.h ****     \defgroup CMSIS_Core_RegAccFunctions CMSIS Core Register Access Functions
  75:Generated_Source\PSoC6\pdl\cmsis/include/cmsis_gcc.h ****   @{
  76:Generated_Source\PSoC6\pdl\cmsis/include/cmsis_gcc.h ****  */
  77:Generated_Source\PSoC6\pdl\cmsis/include/cmsis_gcc.h **** 
  78:Generated_Source\PSoC6\pdl\cmsis/include/cmsis_gcc.h **** /**
  79:Generated_Source\PSoC6\pdl\cmsis/include/cmsis_gcc.h ****   \brief   Enable IRQ Interrupts
  80:Generated_Source\PSoC6\pdl\cmsis/include/cmsis_gcc.h ****   \details Enables IRQ interrupts by clearing the I-bit in the CPSR.
  81:Generated_Source\PSoC6\pdl\cmsis/include/cmsis_gcc.h ****            Can only be executed in Privileged modes.
  82:Generated_Source\PSoC6\pdl\cmsis/include/cmsis_gcc.h ****  */
  83:Generated_Source\PSoC6\pdl\cmsis/include/cmsis_gcc.h **** __attribute__((always_inline)) __STATIC_INLINE void __enable_irq(void)
  84:Generated_Source\PSoC6\pdl\cmsis/include/cmsis_gcc.h **** {
  85:Generated_Source\PSoC6\pdl\cmsis/include/cmsis_gcc.h ****   __ASM volatile ("cpsie i" : : : "memory");
  40              		.loc 2 85 0
  41              		.syntax unified
  42              	@ 85 "Generated_Source\PSoC6\pdl\cmsis/include/cmsis_gcc.h" 1
  43 0002 62B6     		cpsie i
  44              	@ 0 "" 2
  45              		.thumb
  46              		.syntax unified
  47              	.LBE5:
  48              	.LBE4:
  21:APP_U.c       ****    __enable_irq(); /* Enable global interrupts. */
  22:APP_U.c       **** 
  23:APP_U.c       **** 
  24:APP_U.c       ****   CapSense_Start();
  49              		.loc 1 24 0
  50 0004 FFF7FEFF 		bl	CapSense_Start
  51              	.LVL0:
  25:APP_U.c       ****   CapSense_ScanAllWidgets();   
  52              		.loc 1 25 0
  53 0008 FFF7FEFF 		bl	CapSense_ScanAllWidgets
  54              	.LVL1:
  55 000c 08BD     		pop	{r3, pc}
  56              		.cfi_endproc
  57              	.LFE321:
  58              		.size	Start_Interrapts, .-Start_Interrapts
  59 000e 00BF     		.section	.text.CSD_Config,"ax",%progbits
  60              		.align	2
  61              		.global	CSD_Config
ARM GAS  C:\Users\kotli\AppData\Local\Temp\ccncNj1u.s 			page 4


  62              		.thumb
  63              		.thumb_func
  64              		.type	CSD_Config, %function
  65              	CSD_Config:
  66              	.LFB322:
  26:APP_U.c       **** }
  27:APP_U.c       **** 
  28:APP_U.c       **** void CSD_Config(void)
  29:APP_U.c       **** {
  67              		.loc 1 29 0
  68              		.cfi_startproc
  69              		@ args = 0, pretend = 0, frame = 0
  70              		@ frame_needed = 0, uses_anonymous_args = 0
  71 0000 08B5     		push	{r3, lr}
  72              		.cfi_def_cfa_offset 8
  73              		.cfi_offset 3, -8
  74              		.cfi_offset 14, -4
  30:APP_U.c       ****     /* Do this only when a scan is done */
  31:APP_U.c       ****  if(CapSense_NOT_BUSY == CapSense_IsBusy())
  75              		.loc 1 31 0
  76 0002 FFF7FEFF 		bl	CapSense_IsBusy
  77              	.LVL2:
  78 0006 60B9     		cbnz	r0, .L3
  32:APP_U.c       ****  {
  33:APP_U.c       ****  CapSense_ProcessAllWidgets(); /* Process all widgets */
  79              		.loc 1 33 0
  80 0008 FFF7FEFF 		bl	CapSense_ProcessAllWidgets
  81              	.LVL3:
  34:APP_U.c       ****   make_sensors_data();
  82              		.loc 1 34 0
  83 000c FFF7FEFF 		bl	make_sensors_data
  84              	.LVL4:
  35:APP_U.c       ****  Level = Find_Liquid_Level(Sensors, FLASH_ADDR);
  85              		.loc 1 35 0
  86 0010 4FF0A051 		mov	r1, #335544320
  87 0014 0348     		ldr	r0, .L6
  88 0016 FFF7FEFF 		bl	Find_Liquid_Level
  89              	.LVL5:
  90 001a 034B     		ldr	r3, .L6+4
  91 001c 1860     		str	r0, [r3]
  36:APP_U.c       **** 
  37:APP_U.c       ****  CapSense_ScanAllWidgets(); /* Start next scan */
  92              		.loc 1 37 0
  93 001e FFF7FEFF 		bl	CapSense_ScanAllWidgets
  94              	.LVL6:
  95              	.L3:
  96 0022 08BD     		pop	{r3, pc}
  97              	.L7:
  98              		.align	2
  99              	.L6:
 100 0024 00000000 		.word	Sensors
 101 0028 00000000 		.word	Level
 102              		.cfi_endproc
 103              	.LFE322:
 104              		.size	CSD_Config, .-CSD_Config
 105              		.section	.text.FLASH_Config,"ax",%progbits
 106              		.align	2
ARM GAS  C:\Users\kotli\AppData\Local\Temp\ccncNj1u.s 			page 5


 107              		.global	FLASH_Config
 108              		.thumb
 109              		.thumb_func
 110              		.type	FLASH_Config, %function
 111              	FLASH_Config:
 112              	.LFB323:
  38:APP_U.c       ****  }
  39:APP_U.c       **** }
  40:APP_U.c       **** void FLASH_Config(void)
  41:APP_U.c       **** {  
 113              		.loc 1 41 0
 114              		.cfi_startproc
 115              		@ args = 0, pretend = 0, frame = 0
 116              		@ frame_needed = 0, uses_anonymous_args = 0
 117 0000 10B5     		push	{r4, lr}
 118              		.cfi_def_cfa_offset 8
 119              		.cfi_offset 4, -8
 120              		.cfi_offset 14, -4
  42:APP_U.c       ****    
  43:APP_U.c       ****     bool Status_u;
  44:APP_U.c       ****     Status_u = is_writen_config();
 121              		.loc 1 44 0
 122 0002 FFF7FEFF 		bl	is_writen_config
 123              	.LVL7:
  45:APP_U.c       ****    if(Status_u == true)
 124              		.loc 1 45 0
 125 0006 50B1     		cbz	r0, .L8
 126              	.LBB6:
  46:APP_U.c       **** {
  47:APP_U.c       ****    eraze_flash_data();
 127              		.loc 1 47 0
 128 0008 FFF7FEFF 		bl	eraze_flash_data
 129              	.LVL8:
  48:APP_U.c       ****    uint32_t* result = make_data_for_flash(Sensors);
 130              		.loc 1 48 0
 131 000c 0448     		ldr	r0, .L11
 132 000e FFF7FEFF 		bl	make_data_for_flash
 133              	.LVL9:
 134 0012 0446     		mov	r4, r0
 135              	.LVL10:
  49:APP_U.c       ****    write_flash_data(result);
 136              		.loc 1 49 0
 137 0014 FFF7FEFF 		bl	write_flash_data
 138              	.LVL11:
  50:APP_U.c       ****    free((uint32_t*)result);
 139              		.loc 1 50 0
 140 0018 2046     		mov	r0, r4
 141 001a FFF7FEFF 		bl	free
 142              	.LVL12:
 143              	.L8:
 144 001e 10BD     		pop	{r4, pc}
 145              	.L12:
 146              		.align	2
 147              	.L11:
 148 0020 00000000 		.word	Sensors
 149              	.LBE6:
 150              		.cfi_endproc
ARM GAS  C:\Users\kotli\AppData\Local\Temp\ccncNj1u.s 			page 6


 151              	.LFE323:
 152              		.size	FLASH_Config, .-FLASH_Config
 153              		.comm	flash,44,4
 154              		.comm	Level,4,4
 155              		.comm	Sensors,40,4
 156              		.text
 157              	.Letext0:
 158              		.file 3 "c:\\program files (x86)\\cypress\\psoc creator\\4.3\\psoc creator\\import\\gnu\\arm\\5.4.
 159              		.file 4 "c:\\program files (x86)\\cypress\\psoc creator\\4.3\\psoc creator\\import\\gnu\\arm\\5.4.
 160              		.file 5 "Generated_Source\\PSoC6\\pdl\\drivers/peripheral/syslib/cy_syslib.h"
 161              		.file 6 "Generated_Source\\PSoC6\\pdl\\cmsis/include/core_cm4.h"
 162              		.file 7 "Config_u.h"
 163              		.file 8 "flash_config_u.h"
 164              		.file 9 "Generated_Source\\PSoC6/CapSense_Control.h"
 165              		.file 10 "Generated_Source\\PSoC6/CapSense_Sensing.h"
 166              		.file 11 "CapSense_config_u.h"
 167              		.file 12 "c:\\program files (x86)\\cypress\\psoc creator\\4.3\\psoc creator\\import\\gnu\\arm\\5.4