ARM GAS  C:\Users\kotli\AppData\Local\Temp\ccEaO44Y.s 			page 1


   1              		.syntax unified
   2              		.cpu cortex-m4
   3              		.eabi_attribute 27, 1
   4              		.fpu fpv4-sp-d16
   5              		.eabi_attribute 20, 1
   6              		.eabi_attribute 21, 1
   7              		.eabi_attribute 23, 3
   8              		.eabi_attribute 24, 1
   9              		.eabi_attribute 25, 1
  10              		.eabi_attribute 26, 1
  11              		.eabi_attribute 30, 1
  12              		.eabi_attribute 34, 1
  13              		.eabi_attribute 18, 4
  14              		.thumb
  15              		.syntax unified
  16              		.file	"CapSense_Control.c"
  17              		.text
  18              	.Ltext0:
  19              		.cfi_sections	.debug_frame
  20              		.section	.text.CapSense_SwitchPowerModeCallback,"ax",%progbits
  21              		.align	2
  22              		.thumb
  23              		.thumb_func
  24              		.type	CapSense_SwitchPowerModeCallback, %function
  25              	CapSense_SwitchPowerModeCallback:
  26              	.LFB269:
  27              		.file 1 "Generated_Source\\PSoC6\\CapSense_Control.c"
   1:Generated_Source\PSoC6/CapSense_Control.c **** /***************************************************************************//**
   2:Generated_Source\PSoC6/CapSense_Control.c **** * \file CapSense_Control.c
   3:Generated_Source\PSoC6/CapSense_Control.c **** * \version 3.0
   4:Generated_Source\PSoC6/CapSense_Control.c **** *
   5:Generated_Source\PSoC6/CapSense_Control.c **** * \brief
   6:Generated_Source\PSoC6/CapSense_Control.c **** *   This file provides the source code to the Control module API of the Component.
   7:Generated_Source\PSoC6/CapSense_Control.c **** *
   8:Generated_Source\PSoC6/CapSense_Control.c **** * \see CapSense v3.0 Datasheet
   9:Generated_Source\PSoC6/CapSense_Control.c **** *
  10:Generated_Source\PSoC6/CapSense_Control.c **** *//*****************************************************************************
  11:Generated_Source\PSoC6/CapSense_Control.c **** * Copyright (2016-2017), Cypress Semiconductor Corporation.
  12:Generated_Source\PSoC6/CapSense_Control.c **** ********************************************************************************
  13:Generated_Source\PSoC6/CapSense_Control.c **** * This software is owned by Cypress Semiconductor Corporation (Cypress) and is
  14:Generated_Source\PSoC6/CapSense_Control.c **** * protected by and subject to worldwide patent protection (United States and
  15:Generated_Source\PSoC6/CapSense_Control.c **** * foreign), United States copyright laws and international treaty provisions.
  16:Generated_Source\PSoC6/CapSense_Control.c **** * Cypress hereby grants to licensee a personal, non-exclusive, non-transferable
  17:Generated_Source\PSoC6/CapSense_Control.c **** * license to copy, use, modify, create derivative works of, and compile the
  18:Generated_Source\PSoC6/CapSense_Control.c **** * Cypress Source Code and derivative works for the sole purpose of creating
  19:Generated_Source\PSoC6/CapSense_Control.c **** * custom software in support of licensee product to be used only in conjunction
  20:Generated_Source\PSoC6/CapSense_Control.c **** * with a Cypress integrated circuit as specified in the applicable agreement.
  21:Generated_Source\PSoC6/CapSense_Control.c **** * Any reproduction, modification, translation, compilation, or representation of
  22:Generated_Source\PSoC6/CapSense_Control.c **** * this software except as specified above is prohibited without the express
  23:Generated_Source\PSoC6/CapSense_Control.c **** * written permission of Cypress.
  24:Generated_Source\PSoC6/CapSense_Control.c **** *
  25:Generated_Source\PSoC6/CapSense_Control.c **** * Disclaimer: CYPRESS MAKES NO WARRANTY OF ANY KIND, EXPRESS OR IMPLIED, WITH
  26:Generated_Source\PSoC6/CapSense_Control.c **** * REGARD TO THIS MATERIAL, INCLUDING, BUT NOT LIMITED TO, THE IMPLIED
  27:Generated_Source\PSoC6/CapSense_Control.c **** * WARRANTIES OF MERCHANTABILITY AND FITNESS FOR A PARTICULAR PURPOSE.
  28:Generated_Source\PSoC6/CapSense_Control.c **** * Cypress reserves the right to make changes without further notice to the
  29:Generated_Source\PSoC6/CapSense_Control.c **** * materials described herein. Cypress does not assume any liability arising out
  30:Generated_Source\PSoC6/CapSense_Control.c **** * of the application or use of any product or circuit described herein. Cypress
ARM GAS  C:\Users\kotli\AppData\Local\Temp\ccEaO44Y.s 			page 2


  31:Generated_Source\PSoC6/CapSense_Control.c **** * does not authorize its products for use as critical components in life-support
  32:Generated_Source\PSoC6/CapSense_Control.c **** * systems where a malfunction or failure may reasonably be expected to result in
  33:Generated_Source\PSoC6/CapSense_Control.c **** * significant injury to the user. The inclusion of Cypress' product in a life-
  34:Generated_Source\PSoC6/CapSense_Control.c **** * support systems application implies that the manufacturer assumes all risk of
  35:Generated_Source\PSoC6/CapSense_Control.c **** * such use and in doing so indemnifies Cypress against all charges. Use may be
  36:Generated_Source\PSoC6/CapSense_Control.c **** * limited by and subject to the applicable Cypress software license agreement.
  37:Generated_Source\PSoC6/CapSense_Control.c **** *******************************************************************************/
  38:Generated_Source\PSoC6/CapSense_Control.c **** 
  39:Generated_Source\PSoC6/CapSense_Control.c **** #include <stddef.h>
  40:Generated_Source\PSoC6/CapSense_Control.c **** #include "syslib/cy_syslib.h"
  41:Generated_Source\PSoC6/CapSense_Control.c **** #include "syspm/cy_syspm.h"
  42:Generated_Source\PSoC6/CapSense_Control.c **** #include "cyfitter_sysint_cfg.h"
  43:Generated_Source\PSoC6/CapSense_Control.c **** #include "CapSense_Configuration.h"
  44:Generated_Source\PSoC6/CapSense_Control.c **** #include "CapSense_Structure.h"
  45:Generated_Source\PSoC6/CapSense_Control.c **** #include "CapSense_Control.h"
  46:Generated_Source\PSoC6/CapSense_Control.c **** #include "CapSense_Processing.h"
  47:Generated_Source\PSoC6/CapSense_Control.c **** #include "CapSense_Filter.h"
  48:Generated_Source\PSoC6/CapSense_Control.c **** #include "CapSense_Sensing.h"
  49:Generated_Source\PSoC6/CapSense_Control.c **** #include "CapSense_Tuner.h"
  50:Generated_Source\PSoC6/CapSense_Control.c **** 
  51:Generated_Source\PSoC6/CapSense_Control.c **** #if (CapSense_ENABLE == CapSense_SELF_TEST_EN)
  52:Generated_Source\PSoC6/CapSense_Control.c ****     #include "CapSense_SelfTest.h"
  53:Generated_Source\PSoC6/CapSense_Control.c **** #endif
  54:Generated_Source\PSoC6/CapSense_Control.c **** 
  55:Generated_Source\PSoC6/CapSense_Control.c **** #if (0u != CapSense_ADC_EN)
  56:Generated_Source\PSoC6/CapSense_Control.c ****     #include "CapSense_Adc.h"
  57:Generated_Source\PSoC6/CapSense_Control.c **** #endif /* (0u != CapSense_ADC_EN) */
  58:Generated_Source\PSoC6/CapSense_Control.c **** 
  59:Generated_Source\PSoC6/CapSense_Control.c **** #if ((CapSense_ENABLE == CapSense_GES_GLOBAL_EN) ||\
  60:Generated_Source\PSoC6/CapSense_Control.c ****      (CapSense_ENABLE == CapSense_BALLISTIC_MULTIPLIER_EN))
  61:Generated_Source\PSoC6/CapSense_Control.c ****     #include "CapSense_Gesture.h"
  62:Generated_Source\PSoC6/CapSense_Control.c **** #endif /* (CapSense_ENABLE == CapSense_GES_GLOBAL_EN) */
  63:Generated_Source\PSoC6/CapSense_Control.c **** 
  64:Generated_Source\PSoC6/CapSense_Control.c **** /**************************************************************************************************
  65:Generated_Source\PSoC6/CapSense_Control.c **** * Local definition
  66:Generated_Source\PSoC6/CapSense_Control.c **** ***************************************************************************************************
  67:Generated_Source\PSoC6/CapSense_Control.c **** #define CapSense_INIT_DONE   (1u)
  68:Generated_Source\PSoC6/CapSense_Control.c **** #define CapSense_INIT_NEEDED (0u)
  69:Generated_Source\PSoC6/CapSense_Control.c **** 
  70:Generated_Source\PSoC6/CapSense_Control.c **** /**************************************************************************************************
  71:Generated_Source\PSoC6/CapSense_Control.c **** * Local variables
  72:Generated_Source\PSoC6/CapSense_Control.c **** ***************************************************************************************************
  73:Generated_Source\PSoC6/CapSense_Control.c **** static uint8 CapSense_InitVar = CapSense_INIT_NEEDED;
  74:Generated_Source\PSoC6/CapSense_Control.c **** 
  75:Generated_Source\PSoC6/CapSense_Control.c **** /**************************************************************************************************
  76:Generated_Source\PSoC6/CapSense_Control.c **** * Local function
  77:Generated_Source\PSoC6/CapSense_Control.c **** ***************************************************************************************************
  78:Generated_Source\PSoC6/CapSense_Control.c **** #if (CY_SYSPM_DRV_VERSION_MAJOR < 4u)
  79:Generated_Source\PSoC6/CapSense_Control.c ****     static cy_en_syspm_status_t CapSense_SwitchPowerModeCallback(cy_stc_syspm_callback_params_t *ca
  80:Generated_Source\PSoC6/CapSense_Control.c **** #endif
  81:Generated_Source\PSoC6/CapSense_Control.c **** 
  82:Generated_Source\PSoC6/CapSense_Control.c **** /*******************************************************************************
  83:Generated_Source\PSoC6/CapSense_Control.c **** * Function Name: CapSense_Start
  84:Generated_Source\PSoC6/CapSense_Control.c **** ****************************************************************************//**
  85:Generated_Source\PSoC6/CapSense_Control.c **** *
  86:Generated_Source\PSoC6/CapSense_Control.c **** * \brief
  87:Generated_Source\PSoC6/CapSense_Control.c **** *  Initializes the Component hardware and firmware modules. This function is
ARM GAS  C:\Users\kotli\AppData\Local\Temp\ccEaO44Y.s 			page 3


  88:Generated_Source\PSoC6/CapSense_Control.c **** *  called by the application program prior to calling any other function of the
  89:Generated_Source\PSoC6/CapSense_Control.c **** *  Component.
  90:Generated_Source\PSoC6/CapSense_Control.c **** *
  91:Generated_Source\PSoC6/CapSense_Control.c **** * \details
  92:Generated_Source\PSoC6/CapSense_Control.c **** *  This function initializes the Component hardware and firmware modules and
  93:Generated_Source\PSoC6/CapSense_Control.c **** *  is called by the application program prior to calling any other API
  94:Generated_Source\PSoC6/CapSense_Control.c **** *  of the Component. When this function is called, the following tasks are
  95:Generated_Source\PSoC6/CapSense_Control.c **** *  executed as part of the initialization process:
  96:Generated_Source\PSoC6/CapSense_Control.c **** *    1. Initialize the registers of the \ref group_structures variable
  97:Generated_Source\PSoC6/CapSense_Control.c **** *       CapSense_dsRam based on the user selection in the Component
  98:Generated_Source\PSoC6/CapSense_Control.c **** *       configuration wizard.
  99:Generated_Source\PSoC6/CapSense_Control.c **** *    2. Configure the hardware to perform capacitive sensing.
 100:Generated_Source\PSoC6/CapSense_Control.c **** *    3. If SmartSense Auto-tuning is selected for the CSD Tuning mode in the
 101:Generated_Source\PSoC6/CapSense_Control.c **** *       Basic tab, the auto-tuning algorithm is executed to set the optimal
 102:Generated_Source\PSoC6/CapSense_Control.c **** *       values for the hardware parameters of the widgets/sensors.
 103:Generated_Source\PSoC6/CapSense_Control.c **** *    4. Calibrate the sensors and find the optimal values for IDACs of each
 104:Generated_Source\PSoC6/CapSense_Control.c **** *       widget / sensor, if the Enable IDAC auto-calibration is enabled in the
 105:Generated_Source\PSoC6/CapSense_Control.c **** *       CSD Setting or CSX Setting tabs.
 106:Generated_Source\PSoC6/CapSense_Control.c **** *    5. Perform scanning for all the sensors and initialize the baseline history.
 107:Generated_Source\PSoC6/CapSense_Control.c **** *    6. If the firmware filters are enabled in the Advanced General tab, the
 108:Generated_Source\PSoC6/CapSense_Control.c **** *       filter histories are also initialized.
 109:Generated_Source\PSoC6/CapSense_Control.c **** 
 110:Generated_Source\PSoC6/CapSense_Control.c **** *  Any next call of this API repeats an initialization process except for
 111:Generated_Source\PSoC6/CapSense_Control.c **** *  data structure initialization. Therefore, it is possible to change the
 112:Generated_Source\PSoC6/CapSense_Control.c **** *  Component configuration from the application program by writing registers to the
 113:Generated_Source\PSoC6/CapSense_Control.c **** *  data structure and calling this function again. This is also
 114:Generated_Source\PSoC6/CapSense_Control.c **** *  done inside the CapSense_RunTuner() function when a restart command
 115:Generated_Source\PSoC6/CapSense_Control.c **** *  is received.
 116:Generated_Source\PSoC6/CapSense_Control.c **** *
 117:Generated_Source\PSoC6/CapSense_Control.c **** *  When the Component operation is stopped by the CapSense_Stop()
 118:Generated_Source\PSoC6/CapSense_Control.c **** *  function, the CapSense_Start() function repeats an initialization
 119:Generated_Source\PSoC6/CapSense_Control.c **** *  process including data structure initialization.
 120:Generated_Source\PSoC6/CapSense_Control.c **** *
 121:Generated_Source\PSoC6/CapSense_Control.c **** * \return
 122:Generated_Source\PSoC6/CapSense_Control.c **** *  Returns the status of the initialization process. If CY_RET_SUCCESS is not
 123:Generated_Source\PSoC6/CapSense_Control.c **** *  received, some of the initialization fails and the Component may not operate
 124:Generated_Source\PSoC6/CapSense_Control.c **** *  as expected.
 125:Generated_Source\PSoC6/CapSense_Control.c **** *
 126:Generated_Source\PSoC6/CapSense_Control.c **** *******************************************************************************/
 127:Generated_Source\PSoC6/CapSense_Control.c **** cy_status CapSense_Start(void)
 128:Generated_Source\PSoC6/CapSense_Control.c **** {
 129:Generated_Source\PSoC6/CapSense_Control.c ****     cy_status result;
 130:Generated_Source\PSoC6/CapSense_Control.c **** 
 131:Generated_Source\PSoC6/CapSense_Control.c ****     /* Initialize CapSense modules */
 132:Generated_Source\PSoC6/CapSense_Control.c ****     result = CapSense_Initialize();
 133:Generated_Source\PSoC6/CapSense_Control.c **** 
 134:Generated_Source\PSoC6/CapSense_Control.c ****     #if (CapSense_CSD_AUTOTUNE != CapSense_CSD_SS_DIS)
 135:Generated_Source\PSoC6/CapSense_Control.c ****         if (CY_RET_SUCCESS == result)
 136:Generated_Source\PSoC6/CapSense_Control.c ****         {
 137:Generated_Source\PSoC6/CapSense_Control.c ****             result = CapSense_SsAutoTune();
 138:Generated_Source\PSoC6/CapSense_Control.c ****         }
 139:Generated_Source\PSoC6/CapSense_Control.c ****     #endif /* #if (CapSense_CSD_AUTOTUNE != CapSense_CSD_SS_DIS) */
 140:Generated_Source\PSoC6/CapSense_Control.c **** 
 141:Generated_Source\PSoC6/CapSense_Control.c ****     #if ((0u != CapSense_CSX_IDAC_AUTOCAL_EN) || \
 142:Generated_Source\PSoC6/CapSense_Control.c ****         ((CapSense_CSD_AUTOTUNE == CapSense_CSD_SS_DIS) && (0u != CapSense_CSD_IDAC_AUTOCAL_EN)))
 143:Generated_Source\PSoC6/CapSense_Control.c ****         if (CY_RET_SUCCESS == result)
 144:Generated_Source\PSoC6/CapSense_Control.c ****         {
ARM GAS  C:\Users\kotli\AppData\Local\Temp\ccEaO44Y.s 			page 4


 145:Generated_Source\PSoC6/CapSense_Control.c ****             result = CapSense_CalibrateAllWidgets();
 146:Generated_Source\PSoC6/CapSense_Control.c ****         }
 147:Generated_Source\PSoC6/CapSense_Control.c ****     #endif
 148:Generated_Source\PSoC6/CapSense_Control.c **** 
 149:Generated_Source\PSoC6/CapSense_Control.c ****     if (CY_RET_SUCCESS == result)
 150:Generated_Source\PSoC6/CapSense_Control.c ****     {
 151:Generated_Source\PSoC6/CapSense_Control.c ****         result = CapSense_ScanAllWidgets();
 152:Generated_Source\PSoC6/CapSense_Control.c ****     }
 153:Generated_Source\PSoC6/CapSense_Control.c **** 
 154:Generated_Source\PSoC6/CapSense_Control.c ****     while(CapSense_NOT_BUSY != CapSense_IsBusy()){}
 155:Generated_Source\PSoC6/CapSense_Control.c **** 
 156:Generated_Source\PSoC6/CapSense_Control.c ****     CapSense_FtInitialize();
 157:Generated_Source\PSoC6/CapSense_Control.c ****     CapSense_InitializeAllBaselines();
 158:Generated_Source\PSoC6/CapSense_Control.c **** 
 159:Generated_Source\PSoC6/CapSense_Control.c ****     #if(CapSense_ENABLE == CapSense_GES_GLOBAL_EN)
 160:Generated_Source\PSoC6/CapSense_Control.c ****         if (CY_RET_SUCCESS == result)
 161:Generated_Source\PSoC6/CapSense_Control.c ****         {
 162:Generated_Source\PSoC6/CapSense_Control.c ****             CapSense_InitializeGestures();
 163:Generated_Source\PSoC6/CapSense_Control.c ****         }
 164:Generated_Source\PSoC6/CapSense_Control.c ****     #endif /* (CapSense_ENABLE == CapSense_GES_GLOBAL_EN) */
 165:Generated_Source\PSoC6/CapSense_Control.c **** 
 166:Generated_Source\PSoC6/CapSense_Control.c ****     #if (0u != CapSense_BALLISTIC_MULTIPLIER_EN)
 167:Generated_Source\PSoC6/CapSense_Control.c ****         if (CY_RET_SUCCESS == result)
 168:Generated_Source\PSoC6/CapSense_Control.c ****         {
 169:Generated_Source\PSoC6/CapSense_Control.c ****             CapSense_InitializeBallisticMultiplier();
 170:Generated_Source\PSoC6/CapSense_Control.c ****         }
 171:Generated_Source\PSoC6/CapSense_Control.c ****     #endif /* (0u != CapSense_BALLISTIC_MULTIPLIER_EN) */
 172:Generated_Source\PSoC6/CapSense_Control.c **** 
 173:Generated_Source\PSoC6/CapSense_Control.c ****     #if (0u != CapSense_ADC_EN)
 174:Generated_Source\PSoC6/CapSense_Control.c ****         CapSense_AdcInitialize();
 175:Generated_Source\PSoC6/CapSense_Control.c ****     #endif /* (0u != CapSense_ADC_EN) */
 176:Generated_Source\PSoC6/CapSense_Control.c **** 
 177:Generated_Source\PSoC6/CapSense_Control.c ****     return result;
 178:Generated_Source\PSoC6/CapSense_Control.c **** }
 179:Generated_Source\PSoC6/CapSense_Control.c **** 
 180:Generated_Source\PSoC6/CapSense_Control.c **** /*******************************************************************************
 181:Generated_Source\PSoC6/CapSense_Control.c **** * Function Name: CapSense_Initialize
 182:Generated_Source\PSoC6/CapSense_Control.c **** ****************************************************************************//**
 183:Generated_Source\PSoC6/CapSense_Control.c **** *
 184:Generated_Source\PSoC6/CapSense_Control.c **** * \brief
 185:Generated_Source\PSoC6/CapSense_Control.c **** *  This function initializes the CapSense Component.
 186:Generated_Source\PSoC6/CapSense_Control.c **** *
 187:Generated_Source\PSoC6/CapSense_Control.c **** * \details
 188:Generated_Source\PSoC6/CapSense_Control.c **** *  This API initializes all sub-modules of the CapSense Component:
 189:Generated_Source\PSoC6/CapSense_Control.c **** *   - Data Structure - set the default Component parameters defined in the Customizer.
 190:Generated_Source\PSoC6/CapSense_Control.c **** *   - Data Processing - resets all widget statuses.
 191:Generated_Source\PSoC6/CapSense_Control.c **** *   - Tuner - resets tuning state.
 192:Generated_Source\PSoC6/CapSense_Control.c **** *   - Sensing - prepares CSD HW for operation.
 193:Generated_Source\PSoC6/CapSense_Control.c **** *
 194:Generated_Source\PSoC6/CapSense_Control.c **** *  Note that Data Structure module is initialized only once after the reset or
 195:Generated_Source\PSoC6/CapSense_Control.c **** *  CapSense_Stop() API is called. The repeated calls of Initialize API
 196:Generated_Source\PSoC6/CapSense_Control.c **** *  will not re-initialize Data Structure. This is done to preserve Component
 197:Generated_Source\PSoC6/CapSense_Control.c **** *  parameters that user may set in runtime.
 198:Generated_Source\PSoC6/CapSense_Control.c **** *
 199:Generated_Source\PSoC6/CapSense_Control.c **** * \return
 200:Generated_Source\PSoC6/CapSense_Control.c **** *  Return CY_RET_SUCCESS if the initialization was successful.
 201:Generated_Source\PSoC6/CapSense_Control.c **** *
ARM GAS  C:\Users\kotli\AppData\Local\Temp\ccEaO44Y.s 			page 5


 202:Generated_Source\PSoC6/CapSense_Control.c **** *******************************************************************************/
 203:Generated_Source\PSoC6/CapSense_Control.c **** cy_status CapSense_Initialize(void)
 204:Generated_Source\PSoC6/CapSense_Control.c **** {
 205:Generated_Source\PSoC6/CapSense_Control.c ****     cy_status result;
 206:Generated_Source\PSoC6/CapSense_Control.c **** 
 207:Generated_Source\PSoC6/CapSense_Control.c ****     /* The Data Structure and Tuner are initialized only once */
 208:Generated_Source\PSoC6/CapSense_Control.c ****     if (CapSense_INIT_NEEDED == CapSense_InitVar)
 209:Generated_Source\PSoC6/CapSense_Control.c ****     {
 210:Generated_Source\PSoC6/CapSense_Control.c ****         CapSense_DsInitialize();
 211:Generated_Source\PSoC6/CapSense_Control.c ****         CapSense_TuInitialize();
 212:Generated_Source\PSoC6/CapSense_Control.c ****         CapSense_InitVar = CapSense_INIT_DONE;
 213:Generated_Source\PSoC6/CapSense_Control.c ****     }
 214:Generated_Source\PSoC6/CapSense_Control.c **** 
 215:Generated_Source\PSoC6/CapSense_Control.c ****     CapSense_DpInitialize();
 216:Generated_Source\PSoC6/CapSense_Control.c **** 
 217:Generated_Source\PSoC6/CapSense_Control.c ****     result = CapSense_SsInitialize();
 218:Generated_Source\PSoC6/CapSense_Control.c **** 
 219:Generated_Source\PSoC6/CapSense_Control.c ****     return result;
 220:Generated_Source\PSoC6/CapSense_Control.c **** }
 221:Generated_Source\PSoC6/CapSense_Control.c **** 
 222:Generated_Source\PSoC6/CapSense_Control.c **** /*******************************************************************************
 223:Generated_Source\PSoC6/CapSense_Control.c **** * Function Name: CapSense_Stop
 224:Generated_Source\PSoC6/CapSense_Control.c **** ****************************************************************************//**
 225:Generated_Source\PSoC6/CapSense_Control.c **** *
 226:Generated_Source\PSoC6/CapSense_Control.c **** * \brief
 227:Generated_Source\PSoC6/CapSense_Control.c **** *  Stops the Component operation.
 228:Generated_Source\PSoC6/CapSense_Control.c **** *
 229:Generated_Source\PSoC6/CapSense_Control.c **** * \details
 230:Generated_Source\PSoC6/CapSense_Control.c **** *  This function stops the Component operation, no sensor scanning can be
 231:Generated_Source\PSoC6/CapSense_Control.c **** *  executed when the Component is stopped. Once stopped, the hardware block may
 232:Generated_Source\PSoC6/CapSense_Control.c **** *  be reconfigured by the application program for any other special usage. The
 233:Generated_Source\PSoC6/CapSense_Control.c **** *  Component operation can be resumed by calling the CapSense_Resume()
 234:Generated_Source\PSoC6/CapSense_Control.c **** *  function or the Component can be reset by calling the
 235:Generated_Source\PSoC6/CapSense_Control.c **** *  CapSense_Start() function.
 236:Generated_Source\PSoC6/CapSense_Control.c **** *
 237:Generated_Source\PSoC6/CapSense_Control.c **** *  This function is called when no scanning is in progress.
 238:Generated_Source\PSoC6/CapSense_Control.c **** *  I.e. CapSense_IsBusy() returns a non-busy status.
 239:Generated_Source\PSoC6/CapSense_Control.c **** *
 240:Generated_Source\PSoC6/CapSense_Control.c **** * \return
 241:Generated_Source\PSoC6/CapSense_Control.c **** *  Returns the status of the stop process. If CY_RET_SUCCESS is not received,
 242:Generated_Source\PSoC6/CapSense_Control.c **** *  the stop process fails and retries may be required.
 243:Generated_Source\PSoC6/CapSense_Control.c **** *
 244:Generated_Source\PSoC6/CapSense_Control.c **** *******************************************************************************/
 245:Generated_Source\PSoC6/CapSense_Control.c **** cy_status CapSense_Stop(void)
 246:Generated_Source\PSoC6/CapSense_Control.c **** {
 247:Generated_Source\PSoC6/CapSense_Control.c ****     cy_status result = CY_RET_SUCCESS;
 248:Generated_Source\PSoC6/CapSense_Control.c **** 
 249:Generated_Source\PSoC6/CapSense_Control.c ****     #if (CapSense_ENABLE == CapSense_ADC_EN)
 250:Generated_Source\PSoC6/CapSense_Control.c ****         /* Release CSD resources */
 251:Generated_Source\PSoC6/CapSense_Control.c ****         result = CapSense_SsReleaseResources();
 252:Generated_Source\PSoC6/CapSense_Control.c **** 
 253:Generated_Source\PSoC6/CapSense_Control.c ****         /* Release ADC resources */
 254:Generated_Source\PSoC6/CapSense_Control.c ****         CapSense_AdcStop();
 255:Generated_Source\PSoC6/CapSense_Control.c ****     #endif /* (CapSense_ENABLE == CapSense_ADC_EN) */
 256:Generated_Source\PSoC6/CapSense_Control.c **** 
 257:Generated_Source\PSoC6/CapSense_Control.c ****     CapSense_InitVar = CapSense_INIT_NEEDED;
 258:Generated_Source\PSoC6/CapSense_Control.c **** 
ARM GAS  C:\Users\kotli\AppData\Local\Temp\ccEaO44Y.s 			page 6


 259:Generated_Source\PSoC6/CapSense_Control.c ****     return result;
 260:Generated_Source\PSoC6/CapSense_Control.c **** }
 261:Generated_Source\PSoC6/CapSense_Control.c **** 
 262:Generated_Source\PSoC6/CapSense_Control.c **** /*******************************************************************************
 263:Generated_Source\PSoC6/CapSense_Control.c **** * Function Name: CapSense_Resume
 264:Generated_Source\PSoC6/CapSense_Control.c **** ****************************************************************************//**
 265:Generated_Source\PSoC6/CapSense_Control.c **** *
 266:Generated_Source\PSoC6/CapSense_Control.c **** * \brief
 267:Generated_Source\PSoC6/CapSense_Control.c **** *  Resumes the Component operation if the CapSense_Stop() function was
 268:Generated_Source\PSoC6/CapSense_Control.c **** *  called previously.
 269:Generated_Source\PSoC6/CapSense_Control.c **** *
 270:Generated_Source\PSoC6/CapSense_Control.c **** * \details
 271:Generated_Source\PSoC6/CapSense_Control.c **** *  This function resumes the Component operation if the operation is stopped
 272:Generated_Source\PSoC6/CapSense_Control.c **** *  previously by the CapSense_Stop() function. The following tasks are
 273:Generated_Source\PSoC6/CapSense_Control.c **** *  executed as part of the operation resume process:
 274:Generated_Source\PSoC6/CapSense_Control.c **** *    1. Reset all the Widgets/Sensors statuses.
 275:Generated_Source\PSoC6/CapSense_Control.c **** *    2. Configure the hardware to perform capacitive sensing.
 276:Generated_Source\PSoC6/CapSense_Control.c **** *
 277:Generated_Source\PSoC6/CapSense_Control.c **** * \return
 278:Generated_Source\PSoC6/CapSense_Control.c **** *  Returns the status of the resume process. If CY_RET_SUCCESS is not received,
 279:Generated_Source\PSoC6/CapSense_Control.c **** *  the resume process fails and retries may be required.
 280:Generated_Source\PSoC6/CapSense_Control.c **** *
 281:Generated_Source\PSoC6/CapSense_Control.c **** *******************************************************************************/
 282:Generated_Source\PSoC6/CapSense_Control.c **** cy_status CapSense_Resume(void)
 283:Generated_Source\PSoC6/CapSense_Control.c **** {
 284:Generated_Source\PSoC6/CapSense_Control.c ****     cy_status result;
 285:Generated_Source\PSoC6/CapSense_Control.c **** 
 286:Generated_Source\PSoC6/CapSense_Control.c ****     /* The Tuner are initialized only once in order not to break communication */
 287:Generated_Source\PSoC6/CapSense_Control.c ****     if (CapSense_INIT_NEEDED == CapSense_InitVar)
 288:Generated_Source\PSoC6/CapSense_Control.c ****     {
 289:Generated_Source\PSoC6/CapSense_Control.c ****         CapSense_TuInitialize();
 290:Generated_Source\PSoC6/CapSense_Control.c ****         CapSense_InitVar = CapSense_INIT_DONE;
 291:Generated_Source\PSoC6/CapSense_Control.c ****     }
 292:Generated_Source\PSoC6/CapSense_Control.c ****     CapSense_DpInitialize();
 293:Generated_Source\PSoC6/CapSense_Control.c **** 
 294:Generated_Source\PSoC6/CapSense_Control.c ****     result = CapSense_SsInitialize();
 295:Generated_Source\PSoC6/CapSense_Control.c **** 
 296:Generated_Source\PSoC6/CapSense_Control.c ****     return result;
 297:Generated_Source\PSoC6/CapSense_Control.c **** }
 298:Generated_Source\PSoC6/CapSense_Control.c **** 
 299:Generated_Source\PSoC6/CapSense_Control.c **** /*******************************************************************************
 300:Generated_Source\PSoC6/CapSense_Control.c **** * Function Name: CapSense_ProcessAllWidgets
 301:Generated_Source\PSoC6/CapSense_Control.c **** ****************************************************************************//**
 302:Generated_Source\PSoC6/CapSense_Control.c **** *
 303:Generated_Source\PSoC6/CapSense_Control.c **** * \brief
 304:Generated_Source\PSoC6/CapSense_Control.c **** *  Performs full data processing of all enabled widgets.
 305:Generated_Source\PSoC6/CapSense_Control.c **** *
 306:Generated_Source\PSoC6/CapSense_Control.c **** * \details
 307:Generated_Source\PSoC6/CapSense_Control.c **** *  This function performs all data processes for all enabled widgets in the
 308:Generated_Source\PSoC6/CapSense_Control.c **** *  Component. The following tasks are executed as part of processing all the
 309:Generated_Source\PSoC6/CapSense_Control.c **** *  widgets:
 310:Generated_Source\PSoC6/CapSense_Control.c **** *    1. Apply raw count filters to the raw counts, if they are enabled in the
 311:Generated_Source\PSoC6/CapSense_Control.c **** *       customizer.
 312:Generated_Source\PSoC6/CapSense_Control.c **** *    2. Update the thresholds if the SmartSense Full Auto-Tuning is enabled in
 313:Generated_Source\PSoC6/CapSense_Control.c **** *       the customizer.
 314:Generated_Source\PSoC6/CapSense_Control.c **** *    3. Update the baselines and difference counts for all the sensors.
 315:Generated_Source\PSoC6/CapSense_Control.c **** *    4. Update the sensor and widget status (on/off), update the centroid for
ARM GAS  C:\Users\kotli\AppData\Local\Temp\ccEaO44Y.s 			page 7


 316:Generated_Source\PSoC6/CapSense_Control.c **** *       the sliders and the X/Y position for the touchpads.
 317:Generated_Source\PSoC6/CapSense_Control.c **** *
 318:Generated_Source\PSoC6/CapSense_Control.c **** *  This function is called by an application program only after all the enabled
 319:Generated_Source\PSoC6/CapSense_Control.c **** *  widgets (and sensors) in the Component is scanned. Calling this function
 320:Generated_Source\PSoC6/CapSense_Control.c **** *  multiple times without sensor scanning causes unexpected behavior.
 321:Generated_Source\PSoC6/CapSense_Control.c **** *
 322:Generated_Source\PSoC6/CapSense_Control.c **** *  The disabled widgets are not processed by this function. To disable/enable
 323:Generated_Source\PSoC6/CapSense_Control.c **** *  a widget, set the appropriate values in the
 324:Generated_Source\PSoC6/CapSense_Control.c **** *  CapSense_WDGT_ENABLE<RegisterNumber>_PARAM_ID register using the
 325:Generated_Source\PSoC6/CapSense_Control.c **** *  CapSense_SetParam() function.
 326:Generated_Source\PSoC6/CapSense_Control.c **** *
 327:Generated_Source\PSoC6/CapSense_Control.c **** *  If the Ballistic multiplier filter is enabled the Timestamp must be
 328:Generated_Source\PSoC6/CapSense_Control.c **** *  updated before calling this function using the
 329:Generated_Source\PSoC6/CapSense_Control.c **** *  CapSense_IncrementGestureTimestamp() function.
 330:Generated_Source\PSoC6/CapSense_Control.c **** *
 331:Generated_Source\PSoC6/CapSense_Control.c **** *  If the Self-test library is enabled, this function executes the baseline duplication
 332:Generated_Source\PSoC6/CapSense_Control.c **** *  test. Refer to CapSense_CheckBaselineDuplication() for details.
 333:Generated_Source\PSoC6/CapSense_Control.c **** *
 334:Generated_Source\PSoC6/CapSense_Control.c **** * \return
 335:Generated_Source\PSoC6/CapSense_Control.c **** *  Returns the status of the processing operation. If CY_RET_SUCCESS is not received,
 336:Generated_Source\PSoC6/CapSense_Control.c **** *  the processing fails and retries may be required.
 337:Generated_Source\PSoC6/CapSense_Control.c **** *
 338:Generated_Source\PSoC6/CapSense_Control.c **** *******************************************************************************/
 339:Generated_Source\PSoC6/CapSense_Control.c **** cy_status CapSense_ProcessAllWidgets(void)
 340:Generated_Source\PSoC6/CapSense_Control.c **** {
 341:Generated_Source\PSoC6/CapSense_Control.c ****     uint32 wdgtId;
 342:Generated_Source\PSoC6/CapSense_Control.c ****     cy_status result = CY_RET_SUCCESS;
 343:Generated_Source\PSoC6/CapSense_Control.c ****     CapSense_FLASH_WD_STRUCT const *ptrFlashWdgt;
 344:Generated_Source\PSoC6/CapSense_Control.c **** 
 345:Generated_Source\PSoC6/CapSense_Control.c ****     ptrFlashWdgt = CapSense_dsFlash.wdgtArray;
 346:Generated_Source\PSoC6/CapSense_Control.c **** 
 347:Generated_Source\PSoC6/CapSense_Control.c ****     for (wdgtId = 0u; wdgtId < CapSense_TOTAL_WIDGETS; wdgtId++)
 348:Generated_Source\PSoC6/CapSense_Control.c ****     {
 349:Generated_Source\PSoC6/CapSense_Control.c ****         if (0uL != CapSense_GET_WIDGET_EN_STATUS(wdgtId))
 350:Generated_Source\PSoC6/CapSense_Control.c ****         {
 351:Generated_Source\PSoC6/CapSense_Control.c ****             switch(CapSense_GET_SENSE_METHOD(ptrFlashWdgt))
 352:Generated_Source\PSoC6/CapSense_Control.c ****             {
 353:Generated_Source\PSoC6/CapSense_Control.c ****             #if (0u != CapSense_TOTAL_CSD_WIDGETS)
 354:Generated_Source\PSoC6/CapSense_Control.c ****                 case CapSense_SENSE_METHOD_CSD_E:
 355:Generated_Source\PSoC6/CapSense_Control.c ****                     result = CapSense_DpProcessCsdWidgetRawCounts(ptrFlashWdgt);
 356:Generated_Source\PSoC6/CapSense_Control.c ****                     CapSense_DpProcessCsdWidgetStatus(wdgtId, ptrFlashWdgt);
 357:Generated_Source\PSoC6/CapSense_Control.c ****                     break;
 358:Generated_Source\PSoC6/CapSense_Control.c ****             #endif /* #if (0u != CapSense_TOTAL_CSD_WIDGETS) */
 359:Generated_Source\PSoC6/CapSense_Control.c **** 
 360:Generated_Source\PSoC6/CapSense_Control.c ****             #if (0u != CapSense_TOTAL_CSX_WIDGETS)
 361:Generated_Source\PSoC6/CapSense_Control.c ****                 case CapSense_SENSE_METHOD_CSX_E:
 362:Generated_Source\PSoC6/CapSense_Control.c ****                     result = CapSense_DpProcessCsxWidgetRawCounts(ptrFlashWdgt);
 363:Generated_Source\PSoC6/CapSense_Control.c ****                     CapSense_DpProcessCsxWidgetStatus(wdgtId, ptrFlashWdgt);
 364:Generated_Source\PSoC6/CapSense_Control.c ****                     break;
 365:Generated_Source\PSoC6/CapSense_Control.c ****             #endif /* #if (0u != CapSense_TOTAL_CSX_WIDGETS) */
 366:Generated_Source\PSoC6/CapSense_Control.c **** 
 367:Generated_Source\PSoC6/CapSense_Control.c ****             default:
 368:Generated_Source\PSoC6/CapSense_Control.c ****                 CY_ASSERT(0 != 0);
 369:Generated_Source\PSoC6/CapSense_Control.c ****                 break;
 370:Generated_Source\PSoC6/CapSense_Control.c ****             }
 371:Generated_Source\PSoC6/CapSense_Control.c **** 
 372:Generated_Source\PSoC6/CapSense_Control.c ****             #if (CapSense_ENABLE == CapSense_TST_BSLN_DUPLICATION_EN)
ARM GAS  C:\Users\kotli\AppData\Local\Temp\ccEaO44Y.s 			page 8


 373:Generated_Source\PSoC6/CapSense_Control.c ****                 if (CY_RET_SUCCESS != result)
 374:Generated_Source\PSoC6/CapSense_Control.c ****                 {
 375:Generated_Source\PSoC6/CapSense_Control.c ****                     CapSense_UpdateTestResultBaselineDuplication(wdgtId, result);
 376:Generated_Source\PSoC6/CapSense_Control.c ****                     result = CY_RET_BAD_DATA;
 377:Generated_Source\PSoC6/CapSense_Control.c ****                 }
 378:Generated_Source\PSoC6/CapSense_Control.c ****             #endif /* (CapSense_ENABLE == CapSense_TST_BSLN_DUPLICATION_EN) */
 379:Generated_Source\PSoC6/CapSense_Control.c **** 
 380:Generated_Source\PSoC6/CapSense_Control.c ****         }
 381:Generated_Source\PSoC6/CapSense_Control.c ****         ptrFlashWdgt++;
 382:Generated_Source\PSoC6/CapSense_Control.c ****     }
 383:Generated_Source\PSoC6/CapSense_Control.c ****     return result;
 384:Generated_Source\PSoC6/CapSense_Control.c **** }
 385:Generated_Source\PSoC6/CapSense_Control.c **** 
 386:Generated_Source\PSoC6/CapSense_Control.c **** /*******************************************************************************
 387:Generated_Source\PSoC6/CapSense_Control.c **** * Function Name: CapSense_ProcessWidget
 388:Generated_Source\PSoC6/CapSense_Control.c **** ****************************************************************************//**
 389:Generated_Source\PSoC6/CapSense_Control.c **** *
 390:Generated_Source\PSoC6/CapSense_Control.c **** * \brief
 391:Generated_Source\PSoC6/CapSense_Control.c **** *  Performs full data processing of the specified widget if it is enabled.
 392:Generated_Source\PSoC6/CapSense_Control.c **** *
 393:Generated_Source\PSoC6/CapSense_Control.c **** * \details
 394:Generated_Source\PSoC6/CapSense_Control.c **** *  This function performs exactly the same tasks as
 395:Generated_Source\PSoC6/CapSense_Control.c **** *  CapSense_ProcessAllWidgets(), but only for a specified widget. This
 396:Generated_Source\PSoC6/CapSense_Control.c **** *  function can be used along with the CapSense_SetupWidget() and
 397:Generated_Source\PSoC6/CapSense_Control.c **** *  CapSense_Scan() functions to scan and process data for a specific
 398:Generated_Source\PSoC6/CapSense_Control.c **** *  widget. This function is called only after all the sensors in the
 399:Generated_Source\PSoC6/CapSense_Control.c **** *  widgets are scanned. A disabled widget is not processed by this function.
 400:Generated_Source\PSoC6/CapSense_Control.c **** *
 401:Generated_Source\PSoC6/CapSense_Control.c **** *  A pipeline scan method (i.e. during scanning of a widget perform processing
 402:Generated_Source\PSoC6/CapSense_Control.c **** *  of the previously scanned widget) can be implemented using this function and
 403:Generated_Source\PSoC6/CapSense_Control.c **** *  it may reduce the total execution time, increase the refresh rate and
 404:Generated_Source\PSoC6/CapSense_Control.c **** *  decrease the average power consumption.
 405:Generated_Source\PSoC6/CapSense_Control.c **** *
 406:Generated_Source\PSoC6/CapSense_Control.c **** *  If the Ballistic multiplier filter is enabled the Timestamp must be
 407:Generated_Source\PSoC6/CapSense_Control.c **** *  updated before calling this function using the
 408:Generated_Source\PSoC6/CapSense_Control.c **** *  CapSense_IncrementGestureTimestamp() function.
 409:Generated_Source\PSoC6/CapSense_Control.c **** *
 410:Generated_Source\PSoC6/CapSense_Control.c **** *  If the Self-test library is enabled, this function executes the baseline duplication
 411:Generated_Source\PSoC6/CapSense_Control.c **** *  test. Refer to CapSense_CheckBaselineDuplication() for details.
 412:Generated_Source\PSoC6/CapSense_Control.c **** *
 413:Generated_Source\PSoC6/CapSense_Control.c **** * \param widgetId
 414:Generated_Source\PSoC6/CapSense_Control.c **** *  Specifies the ID number of the widget to be processed.
 415:Generated_Source\PSoC6/CapSense_Control.c **** *  A macro for the widget ID can be found in the
 416:Generated_Source\PSoC6/CapSense_Control.c **** *  CapSense Configuration header file defined as
 417:Generated_Source\PSoC6/CapSense_Control.c **** *  CapSense_<WidgetName>_WDGT_ID
 418:Generated_Source\PSoC6/CapSense_Control.c **** *
 419:Generated_Source\PSoC6/CapSense_Control.c **** * \return
 420:Generated_Source\PSoC6/CapSense_Control.c **** *  Returns the status of the widget processing:
 421:Generated_Source\PSoC6/CapSense_Control.c **** *  - CY_RET_SUCCESS - The operation is successfully completed
 422:Generated_Source\PSoC6/CapSense_Control.c **** *  - CY_RET_BAD_PARAM - The input parameter is invalid
 423:Generated_Source\PSoC6/CapSense_Control.c **** *  - CY_RET_INVALID_STATE - The specified widget is disabled
 424:Generated_Source\PSoC6/CapSense_Control.c **** *  - CY_RET_BAD_DATA - The processing is failed
 425:Generated_Source\PSoC6/CapSense_Control.c **** *
 426:Generated_Source\PSoC6/CapSense_Control.c **** *******************************************************************************/
 427:Generated_Source\PSoC6/CapSense_Control.c **** cy_status CapSense_ProcessWidget(uint32 widgetId)
 428:Generated_Source\PSoC6/CapSense_Control.c **** {
 429:Generated_Source\PSoC6/CapSense_Control.c ****     cy_status result = CY_RET_SUCCESS;
ARM GAS  C:\Users\kotli\AppData\Local\Temp\ccEaO44Y.s 			page 9


 430:Generated_Source\PSoC6/CapSense_Control.c ****     CapSense_FLASH_WD_STRUCT const *ptrFlashWdgt;
 431:Generated_Source\PSoC6/CapSense_Control.c **** 
 432:Generated_Source\PSoC6/CapSense_Control.c ****     if (widgetId >= CapSense_TOTAL_WIDGETS)
 433:Generated_Source\PSoC6/CapSense_Control.c ****     {
 434:Generated_Source\PSoC6/CapSense_Control.c ****         result = CY_RET_BAD_PARAM;
 435:Generated_Source\PSoC6/CapSense_Control.c ****     }
 436:Generated_Source\PSoC6/CapSense_Control.c **** 
 437:Generated_Source\PSoC6/CapSense_Control.c ****     if ((CY_RET_SUCCESS == result) && (0uL == CapSense_GET_WIDGET_EN_STATUS(widgetId)))
 438:Generated_Source\PSoC6/CapSense_Control.c ****     {
 439:Generated_Source\PSoC6/CapSense_Control.c ****         result = CY_RET_INVALID_STATE;
 440:Generated_Source\PSoC6/CapSense_Control.c ****     }
 441:Generated_Source\PSoC6/CapSense_Control.c **** 
 442:Generated_Source\PSoC6/CapSense_Control.c ****     if (CY_RET_SUCCESS == result)
 443:Generated_Source\PSoC6/CapSense_Control.c ****     {
 444:Generated_Source\PSoC6/CapSense_Control.c ****         ptrFlashWdgt = &CapSense_dsFlash.wdgtArray[widgetId];
 445:Generated_Source\PSoC6/CapSense_Control.c **** 
 446:Generated_Source\PSoC6/CapSense_Control.c ****         switch(CapSense_GET_SENSE_METHOD(ptrFlashWdgt))
 447:Generated_Source\PSoC6/CapSense_Control.c ****         {
 448:Generated_Source\PSoC6/CapSense_Control.c ****         #if (0u != CapSense_TOTAL_CSD_WIDGETS)
 449:Generated_Source\PSoC6/CapSense_Control.c ****             case CapSense_SENSE_METHOD_CSD_E:
 450:Generated_Source\PSoC6/CapSense_Control.c ****                 result = CapSense_DpProcessCsdWidgetRawCounts(ptrFlashWdgt);
 451:Generated_Source\PSoC6/CapSense_Control.c ****                 CapSense_DpProcessCsdWidgetStatus(widgetId, ptrFlashWdgt);
 452:Generated_Source\PSoC6/CapSense_Control.c ****                 break;
 453:Generated_Source\PSoC6/CapSense_Control.c ****         #endif /* #if (0u != CapSense_TOTAL_CSD_WIDGETS) */
 454:Generated_Source\PSoC6/CapSense_Control.c **** 
 455:Generated_Source\PSoC6/CapSense_Control.c ****         #if (0u != CapSense_TOTAL_CSX_WIDGETS)
 456:Generated_Source\PSoC6/CapSense_Control.c ****             case CapSense_SENSE_METHOD_CSX_E:
 457:Generated_Source\PSoC6/CapSense_Control.c ****                 result = CapSense_DpProcessCsxWidgetRawCounts(ptrFlashWdgt);
 458:Generated_Source\PSoC6/CapSense_Control.c ****                 CapSense_DpProcessCsxWidgetStatus(widgetId, ptrFlashWdgt);
 459:Generated_Source\PSoC6/CapSense_Control.c ****                 break;
 460:Generated_Source\PSoC6/CapSense_Control.c ****         #endif /* #if (0u != CapSense_TOTAL_CSX_WIDGETS) */
 461:Generated_Source\PSoC6/CapSense_Control.c **** 
 462:Generated_Source\PSoC6/CapSense_Control.c ****         default:
 463:Generated_Source\PSoC6/CapSense_Control.c ****             CY_ASSERT(0 != 0);
 464:Generated_Source\PSoC6/CapSense_Control.c ****             break;
 465:Generated_Source\PSoC6/CapSense_Control.c ****         }
 466:Generated_Source\PSoC6/CapSense_Control.c **** 
 467:Generated_Source\PSoC6/CapSense_Control.c ****         #if (CapSense_ENABLE == CapSense_TST_BSLN_DUPLICATION_EN)
 468:Generated_Source\PSoC6/CapSense_Control.c ****             if (CY_RET_SUCCESS != result)
 469:Generated_Source\PSoC6/CapSense_Control.c ****             {
 470:Generated_Source\PSoC6/CapSense_Control.c ****                 CapSense_UpdateTestResultBaselineDuplication(widgetId, result);
 471:Generated_Source\PSoC6/CapSense_Control.c ****                 result = CY_RET_BAD_DATA;
 472:Generated_Source\PSoC6/CapSense_Control.c ****             }
 473:Generated_Source\PSoC6/CapSense_Control.c ****         #endif /* (CapSense_ENABLE == CapSense_TST_BSLN_DUPLICATION_EN) */
 474:Generated_Source\PSoC6/CapSense_Control.c ****     }
 475:Generated_Source\PSoC6/CapSense_Control.c ****     return result;
 476:Generated_Source\PSoC6/CapSense_Control.c **** }
 477:Generated_Source\PSoC6/CapSense_Control.c **** 
 478:Generated_Source\PSoC6/CapSense_Control.c **** 
 479:Generated_Source\PSoC6/CapSense_Control.c **** /*******************************************************************************
 480:Generated_Source\PSoC6/CapSense_Control.c **** * Function Name: CapSense_ProcessWidgetExt
 481:Generated_Source\PSoC6/CapSense_Control.c **** ****************************************************************************//**
 482:Generated_Source\PSoC6/CapSense_Control.c **** *
 483:Generated_Source\PSoC6/CapSense_Control.c **** * \brief
 484:Generated_Source\PSoC6/CapSense_Control.c **** *  Performs customized data processing on the selected widget.
 485:Generated_Source\PSoC6/CapSense_Control.c **** *
 486:Generated_Source\PSoC6/CapSense_Control.c **** * \details
ARM GAS  C:\Users\kotli\AppData\Local\Temp\ccEaO44Y.s 			page 10


 487:Generated_Source\PSoC6/CapSense_Control.c **** *  This function performs data processes for the specified widget specified by
 488:Generated_Source\PSoC6/CapSense_Control.c **** *  the mode parameter. The execution order of the requested operations is from
 489:Generated_Source\PSoC6/CapSense_Control.c **** *  LSB to MSB of the mode parameter. For a different order, this API
 490:Generated_Source\PSoC6/CapSense_Control.c **** *  can be called multiple times with the required mode parameter.
 491:Generated_Source\PSoC6/CapSense_Control.c **** *
 492:Generated_Source\PSoC6/CapSense_Control.c **** *  This function can be used with any of the available scan functions. This
 493:Generated_Source\PSoC6/CapSense_Control.c **** *  function is called only after all the sensors in the specified widget are
 494:Generated_Source\PSoC6/CapSense_Control.c **** *  scanned. Calling this function multiple times with the same mode without
 495:Generated_Source\PSoC6/CapSense_Control.c **** *  sensor scanning causes unexpected behavior. This function ignores the value
 496:Generated_Source\PSoC6/CapSense_Control.c **** *  of the wdgtEnable register.
 497:Generated_Source\PSoC6/CapSense_Control.c **** *
 498:Generated_Source\PSoC6/CapSense_Control.c **** *  The CapSense_PROCESS_CALC_NOISE and
 499:Generated_Source\PSoC6/CapSense_Control.c **** *  CapSense_PROCESS_THRESHOLDS flags are supported by the CSD sensing
 500:Generated_Source\PSoC6/CapSense_Control.c **** *  method only when Auto-tuning mode is enabled.
 501:Generated_Source\PSoC6/CapSense_Control.c **** *
 502:Generated_Source\PSoC6/CapSense_Control.c **** *  The pipeline scan method (i.e. during scanning of a widget, processing
 503:Generated_Source\PSoC6/CapSense_Control.c **** *  of a previously scanned widget is performed) can be implemented using this
 504:Generated_Source\PSoC6/CapSense_Control.c **** *  function and it may reduce the total scan/process time, increase the refresh
 505:Generated_Source\PSoC6/CapSense_Control.c **** *  rate and decrease the power consumption.
 506:Generated_Source\PSoC6/CapSense_Control.c **** *
 507:Generated_Source\PSoC6/CapSense_Control.c **** *  If the Self-test library is enabled, this function executes the baseline duplication
 508:Generated_Source\PSoC6/CapSense_Control.c **** *  test. Refer to CapSense_CheckBaselineDuplication() for details.
 509:Generated_Source\PSoC6/CapSense_Control.c **** *
 510:Generated_Source\PSoC6/CapSense_Control.c **** *  If the Ballistic multiplier filter is enabled the Timestamp must be
 511:Generated_Source\PSoC6/CapSense_Control.c **** *  updated before calling this function using the
 512:Generated_Source\PSoC6/CapSense_Control.c **** *  CapSense_IncrementGestureTimestamp() function.
 513:Generated_Source\PSoC6/CapSense_Control.c **** *
 514:Generated_Source\PSoC6/CapSense_Control.c **** * \param widgetId
 515:Generated_Source\PSoC6/CapSense_Control.c **** *  Specifies the ID number of the widget to be processed.
 516:Generated_Source\PSoC6/CapSense_Control.c **** *  A macro for the widget ID can be found in the CapSense Configuration header
 517:Generated_Source\PSoC6/CapSense_Control.c **** *  file defined as CapSense_<WidgetName>_WDGT_ID.
 518:Generated_Source\PSoC6/CapSense_Control.c **** 
 519:Generated_Source\PSoC6/CapSense_Control.c **** * \param mode
 520:Generated_Source\PSoC6/CapSense_Control.c **** *  Specifies the type of widget processing to be executed for the
 521:Generated_Source\PSoC6/CapSense_Control.c **** *  specified widget:
 522:Generated_Source\PSoC6/CapSense_Control.c **** *    1. Bits [31..6] - Reserved.
 523:Generated_Source\PSoC6/CapSense_Control.c **** *    2. Bits [5..0] - CapSense_PROCESS_ALL - Execute all the tasks.
 524:Generated_Source\PSoC6/CapSense_Control.c **** *    3. Bit [5] - CapSense_PROCESS_STATUS - Update the status (on/off,
 525:Generated_Source\PSoC6/CapSense_Control.c **** *       centroid position).
 526:Generated_Source\PSoC6/CapSense_Control.c **** *    4. Bit [4] - CapSense_PROCESS_THRESHOLDS - Update the thresholds
 527:Generated_Source\PSoC6/CapSense_Control.c **** *       (only in CSD auto-tuning mode).
 528:Generated_Source\PSoC6/CapSense_Control.c **** *    5. Bit [3] - CapSense_PROCESS_CALC_NOISE - Calculate the noise (only in
 529:Generated_Source\PSoC6/CapSense_Control.c **** *       CSD auto-tuning mode).
 530:Generated_Source\PSoC6/CapSense_Control.c **** *    6. Bit [2] - CapSense_PROCESS_DIFFCOUNTS - Update the difference counts.
 531:Generated_Source\PSoC6/CapSense_Control.c **** *    7. Bit [1] - CapSense_PROCESS_BASELINE - Update the baselines.
 532:Generated_Source\PSoC6/CapSense_Control.c **** *    8. Bit [0] - CapSense_PROCESS_FILTER - Run the firmware filters.
 533:Generated_Source\PSoC6/CapSense_Control.c **** *
 534:Generated_Source\PSoC6/CapSense_Control.c **** * \return
 535:Generated_Source\PSoC6/CapSense_Control.c **** *  Returns the status of the widget processing operation:
 536:Generated_Source\PSoC6/CapSense_Control.c **** *  - CY_RET_SUCCESS - The processing is successfully performed.
 537:Generated_Source\PSoC6/CapSense_Control.c **** *  - CY_RET_BAD_PARAM - The input parameter is invalid.
 538:Generated_Source\PSoC6/CapSense_Control.c **** *  - CY_RET_BAD_DATA - The processing failed.
 539:Generated_Source\PSoC6/CapSense_Control.c **** *
 540:Generated_Source\PSoC6/CapSense_Control.c **** *******************************************************************************/
 541:Generated_Source\PSoC6/CapSense_Control.c **** cy_status CapSense_ProcessWidgetExt(uint32 widgetId, uint32 mode)
 542:Generated_Source\PSoC6/CapSense_Control.c **** {
 543:Generated_Source\PSoC6/CapSense_Control.c ****     uint32 snsCount;
ARM GAS  C:\Users\kotli\AppData\Local\Temp\ccEaO44Y.s 			page 11


 544:Generated_Source\PSoC6/CapSense_Control.c ****     cy_status result = CY_RET_BAD_PARAM;
 545:Generated_Source\PSoC6/CapSense_Control.c ****     CapSense_FLASH_WD_STRUCT const *ptrFlashWdgt;
 546:Generated_Source\PSoC6/CapSense_Control.c ****     CapSense_PTR_FILTER_VARIANT fltrHistV;
 547:Generated_Source\PSoC6/CapSense_Control.c ****     CapSense_RAM_SNS_STRUCT *ptrSnsTmp;
 548:Generated_Source\PSoC6/CapSense_Control.c **** 
 549:Generated_Source\PSoC6/CapSense_Control.c ****     #if (0u != CapSense_TOTAL_CSD_WIDGETS)
 550:Generated_Source\PSoC6/CapSense_Control.c ****         uint32 isProxWdgt;
 551:Generated_Source\PSoC6/CapSense_Control.c ****     #endif
 552:Generated_Source\PSoC6/CapSense_Control.c **** 
 553:Generated_Source\PSoC6/CapSense_Control.c ****     if (widgetId < CapSense_TOTAL_WIDGETS)
 554:Generated_Source\PSoC6/CapSense_Control.c ****     {
 555:Generated_Source\PSoC6/CapSense_Control.c ****         ptrFlashWdgt = &CapSense_dsFlash.wdgtArray[widgetId];
 556:Generated_Source\PSoC6/CapSense_Control.c ****         snsCount = CapSense_GET_SNS_CNT_BY_PTR(ptrFlashWdgt);
 557:Generated_Source\PSoC6/CapSense_Control.c ****         ptrSnsTmp = ptrFlashWdgt->ptr2SnsRam;
 558:Generated_Source\PSoC6/CapSense_Control.c ****         fltrHistV.ptr = ptrFlashWdgt->ptr2FltrHistory;
 559:Generated_Source\PSoC6/CapSense_Control.c **** 
 560:Generated_Source\PSoC6/CapSense_Control.c ****         switch(CapSense_GET_SENSE_METHOD(ptrFlashWdgt))
 561:Generated_Source\PSoC6/CapSense_Control.c ****         {
 562:Generated_Source\PSoC6/CapSense_Control.c ****         #if (0u != CapSense_TOTAL_CSD_WIDGETS)
 563:Generated_Source\PSoC6/CapSense_Control.c ****             case CapSense_SENSE_METHOD_CSD_E:
 564:Generated_Source\PSoC6/CapSense_Control.c ****             {
 565:Generated_Source\PSoC6/CapSense_Control.c ****                 /* Determine if widget is type of proximity.
 566:Generated_Source\PSoC6/CapSense_Control.c ****                  * The Proximity widgets use different filters and
 567:Generated_Source\PSoC6/CapSense_Control.c ****                  * therefore have different filter history object structure */
 568:Generated_Source\PSoC6/CapSense_Control.c ****                 isProxWdgt = (CapSense_GET_WIDGET_TYPE(ptrFlashWdgt) == CapSense_WD_PROXIMITY_E) ? 
 569:Generated_Source\PSoC6/CapSense_Control.c **** 
 570:Generated_Source\PSoC6/CapSense_Control.c ****                 /* Run the desired processing for the all CSD widget sensors */
 571:Generated_Source\PSoC6/CapSense_Control.c ****                 for (;snsCount-- > 0u;)
 572:Generated_Source\PSoC6/CapSense_Control.c ****                 {
 573:Generated_Source\PSoC6/CapSense_Control.c ****                     result = CapSense_DpProcessCsdSensorRawCountsExt(ptrFlashWdgt, ptrSnsTmp, fltrH
 574:Generated_Source\PSoC6/CapSense_Control.c **** 
 575:Generated_Source\PSoC6/CapSense_Control.c ****                     #if (CapSense_ENABLE == CapSense_TST_BSLN_DUPLICATION_EN)
 576:Generated_Source\PSoC6/CapSense_Control.c ****                         if (CY_RET_SUCCESS != result)
 577:Generated_Source\PSoC6/CapSense_Control.c ****                         {
 578:Generated_Source\PSoC6/CapSense_Control.c ****                             result = (result | CapSense_TST_LSBYTE) & snsCount;
 579:Generated_Source\PSoC6/CapSense_Control.c ****                         }
 580:Generated_Source\PSoC6/CapSense_Control.c ****                     #endif /* (CapSense_ENABLE == CapSense_TST_BSLN_DUPLICATION_EN) */
 581:Generated_Source\PSoC6/CapSense_Control.c **** 
 582:Generated_Source\PSoC6/CapSense_Control.c ****                     /* Move to the next sensor and filter history objects */
 583:Generated_Source\PSoC6/CapSense_Control.c ****                     ptrSnsTmp++;
 584:Generated_Source\PSoC6/CapSense_Control.c ****                     CapSense_INC_FLTR_OBJ_VARIANT(isProxWdgt, fltrHistV);
 585:Generated_Source\PSoC6/CapSense_Control.c ****                 }
 586:Generated_Source\PSoC6/CapSense_Control.c **** 
 587:Generated_Source\PSoC6/CapSense_Control.c ****                 if (0u != (mode & CapSense_PROCESS_STATUS))
 588:Generated_Source\PSoC6/CapSense_Control.c ****                 {
 589:Generated_Source\PSoC6/CapSense_Control.c ****                     CapSense_DpProcessCsdWidgetStatus(widgetId, ptrFlashWdgt);
 590:Generated_Source\PSoC6/CapSense_Control.c ****                 }
 591:Generated_Source\PSoC6/CapSense_Control.c ****                 break;
 592:Generated_Source\PSoC6/CapSense_Control.c ****             }
 593:Generated_Source\PSoC6/CapSense_Control.c ****         #endif /* #if (0u != CapSense_TOTAL_CSD_WIDGETS) */
 594:Generated_Source\PSoC6/CapSense_Control.c **** 
 595:Generated_Source\PSoC6/CapSense_Control.c ****         #if (0u != CapSense_TOTAL_CSX_WIDGETS)
 596:Generated_Source\PSoC6/CapSense_Control.c ****             case CapSense_SENSE_METHOD_CSX_E:
 597:Generated_Source\PSoC6/CapSense_Control.c **** 
 598:Generated_Source\PSoC6/CapSense_Control.c ****                 #if (0u != CapSense_CSX_MULTIPHASE_TX_EN)
 599:Generated_Source\PSoC6/CapSense_Control.c ****                     if ((0u != (mode & CapSense_PROCESS_DECONVOLUTION)) &&
 600:Generated_Source\PSoC6/CapSense_Control.c ****                         (0u != (ptrFlashWdgt->staticConfig & CapSense_MULTIPHASE_TX_MASK)))
ARM GAS  C:\Users\kotli\AppData\Local\Temp\ccEaO44Y.s 			page 12


 601:Generated_Source\PSoC6/CapSense_Control.c ****                     {
 602:Generated_Source\PSoC6/CapSense_Control.c ****                         CapSense_DpDeconvolution(ptrFlashWdgt);
 603:Generated_Source\PSoC6/CapSense_Control.c ****                     }
 604:Generated_Source\PSoC6/CapSense_Control.c ****                 #endif /* #if (0u != CapSense_CSX_MULTIPHASE_TX_EN) */
 605:Generated_Source\PSoC6/CapSense_Control.c **** 
 606:Generated_Source\PSoC6/CapSense_Control.c ****                 /* Run the desired processing for the all CSX widget sensors */
 607:Generated_Source\PSoC6/CapSense_Control.c ****                 for (;snsCount-- > 0u;)
 608:Generated_Source\PSoC6/CapSense_Control.c ****                 {
 609:Generated_Source\PSoC6/CapSense_Control.c ****                     result = CapSense_DpProcessCsxSensorRawCountsExt(ptrFlashWdgt, ptrSnsTmp, fltrH
 610:Generated_Source\PSoC6/CapSense_Control.c **** 
 611:Generated_Source\PSoC6/CapSense_Control.c ****                     #if (CapSense_ENABLE == CapSense_TST_BSLN_DUPLICATION_EN)
 612:Generated_Source\PSoC6/CapSense_Control.c ****                         if (CY_RET_SUCCESS != result)
 613:Generated_Source\PSoC6/CapSense_Control.c ****                         {
 614:Generated_Source\PSoC6/CapSense_Control.c ****                             result = (result | CapSense_TST_LSBYTE) & snsCount;
 615:Generated_Source\PSoC6/CapSense_Control.c ****                         }
 616:Generated_Source\PSoC6/CapSense_Control.c ****                     #endif /* (CapSense_ENABLE == CapSense_TST_BSLN_DUPLICATION_EN) */
 617:Generated_Source\PSoC6/CapSense_Control.c **** 
 618:Generated_Source\PSoC6/CapSense_Control.c ****                     /* Move to the next sensor and filter history objects */
 619:Generated_Source\PSoC6/CapSense_Control.c ****                     ptrSnsTmp++;
 620:Generated_Source\PSoC6/CapSense_Control.c ****                     CapSense_INC_REG_FLTR_OBJ(fltrHistV);
 621:Generated_Source\PSoC6/CapSense_Control.c ****                 }
 622:Generated_Source\PSoC6/CapSense_Control.c **** 
 623:Generated_Source\PSoC6/CapSense_Control.c ****                 if (0u != (mode & CapSense_PROCESS_STATUS))
 624:Generated_Source\PSoC6/CapSense_Control.c ****                 {
 625:Generated_Source\PSoC6/CapSense_Control.c ****                     CapSense_DpProcessCsxWidgetStatus(widgetId, ptrFlashWdgt);
 626:Generated_Source\PSoC6/CapSense_Control.c ****                 }
 627:Generated_Source\PSoC6/CapSense_Control.c ****                 break;
 628:Generated_Source\PSoC6/CapSense_Control.c ****         #endif /* #if (0u != CapSense_TOTAL_CSX_WIDGETS) */
 629:Generated_Source\PSoC6/CapSense_Control.c **** 
 630:Generated_Source\PSoC6/CapSense_Control.c ****         default:
 631:Generated_Source\PSoC6/CapSense_Control.c ****             CY_ASSERT(0 != 0);
 632:Generated_Source\PSoC6/CapSense_Control.c ****             break;
 633:Generated_Source\PSoC6/CapSense_Control.c ****         }
 634:Generated_Source\PSoC6/CapSense_Control.c **** 
 635:Generated_Source\PSoC6/CapSense_Control.c ****         #if (CapSense_ENABLE == CapSense_TST_BSLN_DUPLICATION_EN)
 636:Generated_Source\PSoC6/CapSense_Control.c ****             if (CY_RET_SUCCESS != result)
 637:Generated_Source\PSoC6/CapSense_Control.c ****             {
 638:Generated_Source\PSoC6/CapSense_Control.c ****                 CapSense_UpdateTestResultBaselineDuplication(widgetId, snsCount);
 639:Generated_Source\PSoC6/CapSense_Control.c ****                 result = CY_RET_BAD_DATA;
 640:Generated_Source\PSoC6/CapSense_Control.c ****             }
 641:Generated_Source\PSoC6/CapSense_Control.c ****         #endif /* (CapSense_ENABLE == CapSense_TST_BSLN_DUPLICATION_EN) */
 642:Generated_Source\PSoC6/CapSense_Control.c **** 
 643:Generated_Source\PSoC6/CapSense_Control.c ****     }
 644:Generated_Source\PSoC6/CapSense_Control.c ****     return result;
 645:Generated_Source\PSoC6/CapSense_Control.c **** }
 646:Generated_Source\PSoC6/CapSense_Control.c **** 
 647:Generated_Source\PSoC6/CapSense_Control.c **** /*******************************************************************************
 648:Generated_Source\PSoC6/CapSense_Control.c **** * Function Name: CapSense_ProcessSensorExt
 649:Generated_Source\PSoC6/CapSense_Control.c **** ****************************************************************************//**
 650:Generated_Source\PSoC6/CapSense_Control.c **** *
 651:Generated_Source\PSoC6/CapSense_Control.c **** * \brief
 652:Generated_Source\PSoC6/CapSense_Control.c **** *  Performs customized data processing on the selected widget's sensor.
 653:Generated_Source\PSoC6/CapSense_Control.c **** *
 654:Generated_Source\PSoC6/CapSense_Control.c **** * \details
 655:Generated_Source\PSoC6/CapSense_Control.c **** *  This function performs data processes for the specified sensor specified by
 656:Generated_Source\PSoC6/CapSense_Control.c **** *  the mode parameter. The execution order of the requested operations is from
 657:Generated_Source\PSoC6/CapSense_Control.c **** *  LSB to MSB of the mode parameter. For a different order, this
ARM GAS  C:\Users\kotli\AppData\Local\Temp\ccEaO44Y.s 			page 13


 658:Generated_Source\PSoC6/CapSense_Control.c **** *  function can be called multiple times with the required mode parameter.
 659:Generated_Source\PSoC6/CapSense_Control.c **** *
 660:Generated_Source\PSoC6/CapSense_Control.c **** *  This function can be used with any of the available scan functions. This
 661:Generated_Source\PSoC6/CapSense_Control.c **** *  function is called only after a specified sensor in the widget is
 662:Generated_Source\PSoC6/CapSense_Control.c **** *  scanned. Calling this function multiple times with the same mode without
 663:Generated_Source\PSoC6/CapSense_Control.c **** *  sensor scanning causes unexpected behavior. This function ignores the value
 664:Generated_Source\PSoC6/CapSense_Control.c **** *  of the wdgtEnable register.
 665:Generated_Source\PSoC6/CapSense_Control.c **** *
 666:Generated_Source\PSoC6/CapSense_Control.c **** *  The CapSense_PROCESS_CALC_NOISE and
 667:Generated_Source\PSoC6/CapSense_Control.c **** *  CapSense_PROCESS_THRESHOLDS flags are supported by the CSD sensing
 668:Generated_Source\PSoC6/CapSense_Control.c **** *  method only when Auto-tuning mode is enabled.
 669:Generated_Source\PSoC6/CapSense_Control.c **** *
 670:Generated_Source\PSoC6/CapSense_Control.c **** *  The pipeline scan method (i.e. during scanning of a sensor, processing
 671:Generated_Source\PSoC6/CapSense_Control.c **** *  of a previously scanned sensor is performed) can be implemented using this
 672:Generated_Source\PSoC6/CapSense_Control.c **** *  function and it may reduce the total scan/process time, increase the refresh
 673:Generated_Source\PSoC6/CapSense_Control.c **** *  rate and decrease the power consumption.
 674:Generated_Source\PSoC6/CapSense_Control.c **** *
 675:Generated_Source\PSoC6/CapSense_Control.c **** *  If the Self-test library is enabled, this function executes the baseline duplication
 676:Generated_Source\PSoC6/CapSense_Control.c **** *  test. Refer to CapSense_CheckBaselineDuplication() for details.
 677:Generated_Source\PSoC6/CapSense_Control.c **** *
 678:Generated_Source\PSoC6/CapSense_Control.c **** * \param widgetId
 679:Generated_Source\PSoC6/CapSense_Control.c **** *  Specifies the ID number of the widget to process one of its sensors.
 680:Generated_Source\PSoC6/CapSense_Control.c **** *  A macro for the widget ID can be found in the
 681:Generated_Source\PSoC6/CapSense_Control.c **** *  CapSense Configuration header file defined as
 682:Generated_Source\PSoC6/CapSense_Control.c **** *  CapSense_<WidgetName>_WDGT_ID.
 683:Generated_Source\PSoC6/CapSense_Control.c **** *
 684:Generated_Source\PSoC6/CapSense_Control.c **** * \param sensorId
 685:Generated_Source\PSoC6/CapSense_Control.c **** *  Specifies the ID number of the sensor within the widget to process it.
 686:Generated_Source\PSoC6/CapSense_Control.c **** *  A macro for the sensor ID within a specified widget can be found in the
 687:Generated_Source\PSoC6/CapSense_Control.c **** *  CapSense Configuration header file defined as
 688:Generated_Source\PSoC6/CapSense_Control.c **** *  CapSense_<WidgetName>_SNS<SensorNumber>_ID.
 689:Generated_Source\PSoC6/CapSense_Control.c **** *
 690:Generated_Source\PSoC6/CapSense_Control.c **** * \param mode
 691:Generated_Source\PSoC6/CapSense_Control.c **** *  Specifies the type of the sensor processing that needs to be executed for the
 692:Generated_Source\PSoC6/CapSense_Control.c **** *  specified sensor:
 693:Generated_Source\PSoC6/CapSense_Control.c **** *    1. Bits [31..5] - Reserved
 694:Generated_Source\PSoC6/CapSense_Control.c **** *    2. Bits [4..0] - CapSense_PROCESS_ALL - Executes all the tasks
 695:Generated_Source\PSoC6/CapSense_Control.c **** *    3. Bit [4] - CapSense_PROCESS_THRESHOLDS - Updates the thresholds (only
 696:Generated_Source\PSoC6/CapSense_Control.c **** *       in auto-tuning mode)
 697:Generated_Source\PSoC6/CapSense_Control.c **** *    4. Bit [3] - CapSense_PROCESS_CALC_NOISE - Calculates the noise (only
 698:Generated_Source\PSoC6/CapSense_Control.c **** *       in auto-tuning mode)
 699:Generated_Source\PSoC6/CapSense_Control.c **** *    5. Bit [2] - CapSense_PROCESS_DIFFCOUNTS - Updates the difference count
 700:Generated_Source\PSoC6/CapSense_Control.c **** *    6. Bit [1] - CapSense_PROCESS_BASELINE - Updates the baseline
 701:Generated_Source\PSoC6/CapSense_Control.c **** *    7. Bit [0] - CapSense_PROCESS_FILTER - Runs the firmware filters
 702:Generated_Source\PSoC6/CapSense_Control.c **** *
 703:Generated_Source\PSoC6/CapSense_Control.c **** * \return
 704:Generated_Source\PSoC6/CapSense_Control.c **** *  Returns the status of the sensor process operation:
 705:Generated_Source\PSoC6/CapSense_Control.c **** *  - CY_RET_SUCCESS - The processing is successfully performed.
 706:Generated_Source\PSoC6/CapSense_Control.c **** *  - CY_RET_BAD_PARAM - The input parameter is invalid.
 707:Generated_Source\PSoC6/CapSense_Control.c **** *  - CY_RET_BAD_DATA - The processing failed.
 708:Generated_Source\PSoC6/CapSense_Control.c **** *
 709:Generated_Source\PSoC6/CapSense_Control.c **** *******************************************************************************/
 710:Generated_Source\PSoC6/CapSense_Control.c **** cy_status CapSense_ProcessSensorExt(uint32 widgetId, uint32 sensorId, uint32 mode)
 711:Generated_Source\PSoC6/CapSense_Control.c **** {
 712:Generated_Source\PSoC6/CapSense_Control.c ****     cy_status result = CY_RET_BAD_PARAM;
 713:Generated_Source\PSoC6/CapSense_Control.c ****     CapSense_FLASH_WD_STRUCT const *ptrFlashWdgt;
 714:Generated_Source\PSoC6/CapSense_Control.c ****     CapSense_PTR_FILTER_VARIANT fltrHistV;
ARM GAS  C:\Users\kotli\AppData\Local\Temp\ccEaO44Y.s 			page 14


 715:Generated_Source\PSoC6/CapSense_Control.c ****     CapSense_RAM_SNS_STRUCT *ptrSnsTmp;
 716:Generated_Source\PSoC6/CapSense_Control.c **** 
 717:Generated_Source\PSoC6/CapSense_Control.c ****     if ((widgetId < CapSense_TOTAL_WIDGETS) && (sensorId < CapSense_GET_SENSOR_COUNT(widgetId)))
 718:Generated_Source\PSoC6/CapSense_Control.c ****     {
 719:Generated_Source\PSoC6/CapSense_Control.c ****         result = CY_RET_SUCCESS;
 720:Generated_Source\PSoC6/CapSense_Control.c **** 
 721:Generated_Source\PSoC6/CapSense_Control.c ****         ptrFlashWdgt = &CapSense_dsFlash.wdgtArray[widgetId];
 722:Generated_Source\PSoC6/CapSense_Control.c ****         fltrHistV.ptr = ptrFlashWdgt->ptr2FltrHistory;
 723:Generated_Source\PSoC6/CapSense_Control.c ****         ptrSnsTmp = ptrFlashWdgt->ptr2SnsRam;
 724:Generated_Source\PSoC6/CapSense_Control.c ****         ptrSnsTmp += sensorId;
 725:Generated_Source\PSoC6/CapSense_Control.c **** 
 726:Generated_Source\PSoC6/CapSense_Control.c ****         switch(CapSense_GET_SENSE_METHOD(ptrFlashWdgt))
 727:Generated_Source\PSoC6/CapSense_Control.c ****         {
 728:Generated_Source\PSoC6/CapSense_Control.c ****         #if (0u != CapSense_TOTAL_CSD_WIDGETS)
 729:Generated_Source\PSoC6/CapSense_Control.c ****             case CapSense_SENSE_METHOD_CSD_E:
 730:Generated_Source\PSoC6/CapSense_Control.c ****                 if (CapSense_WD_PROXIMITY_E == (CapSense_WD_TYPE_ENUM)ptrFlashWdgt->wdgtType)
 731:Generated_Source\PSoC6/CapSense_Control.c ****                 {
 732:Generated_Source\PSoC6/CapSense_Control.c ****                     #if (0u != CapSense_PROX_RC_ALP_FILTER_EN)
 733:Generated_Source\PSoC6/CapSense_Control.c ****                         fltrHistV.ptr = &fltrHistV.ptrAlp[sensorId];
 734:Generated_Source\PSoC6/CapSense_Control.c ****                     #elif (0u != CapSense_PROX_RC_FILTER_EN)
 735:Generated_Source\PSoC6/CapSense_Control.c ****                         fltrHistV.ptr = &fltrHistV.ptrProx[sensorId];
 736:Generated_Source\PSoC6/CapSense_Control.c ****                     #endif
 737:Generated_Source\PSoC6/CapSense_Control.c ****                 }
 738:Generated_Source\PSoC6/CapSense_Control.c ****                 else
 739:Generated_Source\PSoC6/CapSense_Control.c ****                 {
 740:Generated_Source\PSoC6/CapSense_Control.c ****                     #if (0u != CapSense_REGULAR_RC_ALP_FILTER_EN)
 741:Generated_Source\PSoC6/CapSense_Control.c ****                         fltrHistV.ptr = &fltrHistV.ptrAlp[sensorId];
 742:Generated_Source\PSoC6/CapSense_Control.c ****                     #elif (0u != CapSense_REGULAR_RC_FILTER_EN)
 743:Generated_Source\PSoC6/CapSense_Control.c ****                         fltrHistV.ptr = &fltrHistV.ptrRegular[sensorId];
 744:Generated_Source\PSoC6/CapSense_Control.c ****                     #endif
 745:Generated_Source\PSoC6/CapSense_Control.c ****                 }
 746:Generated_Source\PSoC6/CapSense_Control.c **** 
 747:Generated_Source\PSoC6/CapSense_Control.c ****                 result = CapSense_DpProcessCsdSensorRawCountsExt(ptrFlashWdgt, ptrSnsTmp, fltrHistV
 748:Generated_Source\PSoC6/CapSense_Control.c ****                 break;
 749:Generated_Source\PSoC6/CapSense_Control.c ****         #endif /* #if (0u != CapSense_TOTAL_CSD_WIDGETS) */
 750:Generated_Source\PSoC6/CapSense_Control.c **** 
 751:Generated_Source\PSoC6/CapSense_Control.c ****         #if (0u != CapSense_TOTAL_CSX_WIDGETS)
 752:Generated_Source\PSoC6/CapSense_Control.c ****             case CapSense_SENSE_METHOD_CSX_E:
 753:Generated_Source\PSoC6/CapSense_Control.c ****                 #if (0u != CapSense_REGULAR_RC_ALP_FILTER_EN)
 754:Generated_Source\PSoC6/CapSense_Control.c ****                     fltrHistV.ptr = &fltrHistV.ptrAlp[sensorId];
 755:Generated_Source\PSoC6/CapSense_Control.c ****                 #elif (0u != CapSense_REGULAR_RC_FILTER_EN)
 756:Generated_Source\PSoC6/CapSense_Control.c ****                     fltrHistV.ptr = &fltrHistV.ptrRegular[sensorId];
 757:Generated_Source\PSoC6/CapSense_Control.c ****                 #endif
 758:Generated_Source\PSoC6/CapSense_Control.c **** 
 759:Generated_Source\PSoC6/CapSense_Control.c ****                 result = CapSense_DpProcessCsxSensorRawCountsExt(ptrFlashWdgt, ptrSnsTmp, fltrHistV
 760:Generated_Source\PSoC6/CapSense_Control.c ****                 break;
 761:Generated_Source\PSoC6/CapSense_Control.c ****         #endif /* #if (0u != CapSense_TOTAL_CSX_WIDGETS) */
 762:Generated_Source\PSoC6/CapSense_Control.c **** 
 763:Generated_Source\PSoC6/CapSense_Control.c ****         default:
 764:Generated_Source\PSoC6/CapSense_Control.c ****             CY_ASSERT(0 != 0);
 765:Generated_Source\PSoC6/CapSense_Control.c ****             break;
 766:Generated_Source\PSoC6/CapSense_Control.c ****         }
 767:Generated_Source\PSoC6/CapSense_Control.c **** 
 768:Generated_Source\PSoC6/CapSense_Control.c ****         #if (CapSense_ENABLE == CapSense_TST_BSLN_DUPLICATION_EN)
 769:Generated_Source\PSoC6/CapSense_Control.c ****             if (CY_RET_SUCCESS != result)
 770:Generated_Source\PSoC6/CapSense_Control.c ****             {
 771:Generated_Source\PSoC6/CapSense_Control.c ****                 CapSense_UpdateTestResultBaselineDuplication(widgetId, sensorId);
ARM GAS  C:\Users\kotli\AppData\Local\Temp\ccEaO44Y.s 			page 15


 772:Generated_Source\PSoC6/CapSense_Control.c ****                 result = CY_RET_BAD_DATA;
 773:Generated_Source\PSoC6/CapSense_Control.c ****             }
 774:Generated_Source\PSoC6/CapSense_Control.c ****         #endif /* (CapSense_ENABLE == CapSense_TST_BSLN_DUPLICATION_EN) */
 775:Generated_Source\PSoC6/CapSense_Control.c **** 
 776:Generated_Source\PSoC6/CapSense_Control.c ****     }
 777:Generated_Source\PSoC6/CapSense_Control.c ****     return result;
 778:Generated_Source\PSoC6/CapSense_Control.c **** }
 779:Generated_Source\PSoC6/CapSense_Control.c **** 
 780:Generated_Source\PSoC6/CapSense_Control.c **** /*******************************************************************************
 781:Generated_Source\PSoC6/CapSense_Control.c **** * Function Name: CapSense_Sleep
 782:Generated_Source\PSoC6/CapSense_Control.c **** ****************************************************************************//**
 783:Generated_Source\PSoC6/CapSense_Control.c **** *
 784:Generated_Source\PSoC6/CapSense_Control.c **** * \brief
 785:Generated_Source\PSoC6/CapSense_Control.c **** *  Prepares the Component for deep sleep.
 786:Generated_Source\PSoC6/CapSense_Control.c **** *
 787:Generated_Source\PSoC6/CapSense_Control.c **** * \details
 788:Generated_Source\PSoC6/CapSense_Control.c **** *  Currently this function is empty and exists as a place for future updates,
 789:Generated_Source\PSoC6/CapSense_Control.c **** *  this function will be used to prepare the Component to enter deep sleep.
 790:Generated_Source\PSoC6/CapSense_Control.c **** *
 791:Generated_Source\PSoC6/CapSense_Control.c **** *******************************************************************************/
 792:Generated_Source\PSoC6/CapSense_Control.c **** void CapSense_Sleep(void)
 793:Generated_Source\PSoC6/CapSense_Control.c **** {
 794:Generated_Source\PSoC6/CapSense_Control.c **** }
 795:Generated_Source\PSoC6/CapSense_Control.c **** 
 796:Generated_Source\PSoC6/CapSense_Control.c **** 
 797:Generated_Source\PSoC6/CapSense_Control.c **** /*******************************************************************************
 798:Generated_Source\PSoC6/CapSense_Control.c **** * Function Name: CapSense_Wakeup
 799:Generated_Source\PSoC6/CapSense_Control.c **** ****************************************************************************//**
 800:Generated_Source\PSoC6/CapSense_Control.c **** *
 801:Generated_Source\PSoC6/CapSense_Control.c **** * \brief
 802:Generated_Source\PSoC6/CapSense_Control.c **** *  Resumes the Component after sleep.
 803:Generated_Source\PSoC6/CapSense_Control.c **** *
 804:Generated_Source\PSoC6/CapSense_Control.c **** * \details
 805:Generated_Source\PSoC6/CapSense_Control.c **** *  Resumes the Component after sleep. This function shall be used to resume
 806:Generated_Source\PSoC6/CapSense_Control.c **** *  the Component after exiting deep sleep.
 807:Generated_Source\PSoC6/CapSense_Control.c **** *
 808:Generated_Source\PSoC6/CapSense_Control.c **** *******************************************************************************/
 809:Generated_Source\PSoC6/CapSense_Control.c **** void CapSense_Wakeup(void)
 810:Generated_Source\PSoC6/CapSense_Control.c **** {
 811:Generated_Source\PSoC6/CapSense_Control.c ****     #if(CapSense_BLOCK_ANALOG_WAKEUP_DELAY_US > 0uL)
 812:Generated_Source\PSoC6/CapSense_Control.c ****         Cy_SysLib_DelayUs(CapSense_BLOCK_ANALOG_WAKEUP_DELAY_US);
 813:Generated_Source\PSoC6/CapSense_Control.c ****     #endif /* (CapSense_BLOCK_ANALOG_WAKEUP_DELAY_US > 0uL) */
 814:Generated_Source\PSoC6/CapSense_Control.c **** }
 815:Generated_Source\PSoC6/CapSense_Control.c **** 
 816:Generated_Source\PSoC6/CapSense_Control.c **** 
 817:Generated_Source\PSoC6/CapSense_Control.c **** #if (CY_SYSPM_DRV_VERSION_MAJOR < 4u)
 818:Generated_Source\PSoC6/CapSense_Control.c ****     /*******************************************************************************
 819:Generated_Source\PSoC6/CapSense_Control.c ****     * Function Name: CapSense_DeepSleepCallback
 820:Generated_Source\PSoC6/CapSense_Control.c ****     ****************************************************************************//**
 821:Generated_Source\PSoC6/CapSense_Control.c ****     *
 822:Generated_Source\PSoC6/CapSense_Control.c ****     * \brief
 823:Generated_Source\PSoC6/CapSense_Control.c ****     *  Handles Active to DeepSleep power mode transition for the CapSense
 824:Generated_Source\PSoC6/CapSense_Control.c ****     *  Component. This function is used when the major version of the SysPm driver
 825:Generated_Source\PSoC6/CapSense_Control.c ****     *  is less than 4.
 826:Generated_Source\PSoC6/CapSense_Control.c ****     *
 827:Generated_Source\PSoC6/CapSense_Control.c ****     * \details
 828:Generated_Source\PSoC6/CapSense_Control.c ****     *  This function handles Active to DeepSleep power mode transition
ARM GAS  C:\Users\kotli\AppData\Local\Temp\ccEaO44Y.s 			page 16


 829:Generated_Source\PSoC6/CapSense_Control.c ****     *  for the CapSense Component.
 830:Generated_Source\PSoC6/CapSense_Control.c ****     *  Calling this function directly by application layer is not recommended.
 831:Generated_Source\PSoC6/CapSense_Control.c ****     *  Instead, Cy_SysPm_DeepSleep() should be used for the Active to DeepSleep
 832:Generated_Source\PSoC6/CapSense_Control.c ****     *  power mode transition of the device.
 833:Generated_Source\PSoC6/CapSense_Control.c ****     *
 834:Generated_Source\PSoC6/CapSense_Control.c ****     *  For proper operation of the CapSense Component during the Active to
 835:Generated_Source\PSoC6/CapSense_Control.c ****     *  DeepSleep mode transition, a callback to this API should be registered
 836:Generated_Source\PSoC6/CapSense_Control.c ****     *  using the Cy_SysPm_RegisterCallback() function with CY_SYSPM_DEEPSLEEP
 837:Generated_Source\PSoC6/CapSense_Control.c ****     *  type. Once the callback is registered, this function is called by the
 838:Generated_Source\PSoC6/CapSense_Control.c ****     *  Cy_SysPm_DeepSleep() function to prepare the Component to the device
 839:Generated_Source\PSoC6/CapSense_Control.c ****     *  power mode transition.
 840:Generated_Source\PSoC6/CapSense_Control.c ****     *
 841:Generated_Source\PSoC6/CapSense_Control.c ****     *  When this function is called with CY_SYSPM_CHECK_READY as input, this
 842:Generated_Source\PSoC6/CapSense_Control.c ****     *  function returns CY_SYSPM_SUCCESS if no scanning is in progress, otherwise
 843:Generated_Source\PSoC6/CapSense_Control.c ****     *  CY_SYSPM_FAIL is returned. If CY_SYSPM_FAIL status is returned, a device
 844:Generated_Source\PSoC6/CapSense_Control.c ****     *  cannot change the power mode without completing the current scan as
 845:Generated_Source\PSoC6/CapSense_Control.c ****     *  a transition to DeepSleep during the scan can disrupt the Component
 846:Generated_Source\PSoC6/CapSense_Control.c ****     *  operation.
 847:Generated_Source\PSoC6/CapSense_Control.c ****     *
 848:Generated_Source\PSoC6/CapSense_Control.c ****     * \param callbackParams
 849:Generated_Source\PSoC6/CapSense_Control.c ****     *  Refer to the description of the cy_stc_syspm_callback_params_t type in the
 850:Generated_Source\PSoC6/CapSense_Control.c ****     *  Peripheral Driver Library documentation.
 851:Generated_Source\PSoC6/CapSense_Control.c ****     *
 852:Generated_Source\PSoC6/CapSense_Control.c ****     * \return
 853:Generated_Source\PSoC6/CapSense_Control.c ****     *  Returns the status of the operation requested by the mode parameter:
 854:Generated_Source\PSoC6/CapSense_Control.c ****     *  - CY_SYSPM_SUCCESS  - DeepSleep power mode can be entered.
 855:Generated_Source\PSoC6/CapSense_Control.c ****     *  - CY_SYSPM_FAIL     - DeepSleep power mode cannot be entered.
 856:Generated_Source\PSoC6/CapSense_Control.c ****     *
 857:Generated_Source\PSoC6/CapSense_Control.c ****     *******************************************************************************/
 858:Generated_Source\PSoC6/CapSense_Control.c ****     cy_en_syspm_status_t CapSense_DeepSleepCallback(cy_stc_syspm_callback_params_t *callbackParams)
 859:Generated_Source\PSoC6/CapSense_Control.c ****     {
 860:Generated_Source\PSoC6/CapSense_Control.c ****         return(CapSense_SwitchPowerModeCallback(callbackParams));
 861:Generated_Source\PSoC6/CapSense_Control.c ****     }
 862:Generated_Source\PSoC6/CapSense_Control.c **** 
 863:Generated_Source\PSoC6/CapSense_Control.c **** 
 864:Generated_Source\PSoC6/CapSense_Control.c ****     /*******************************************************************************
 865:Generated_Source\PSoC6/CapSense_Control.c ****     * Function Name: CapSense_EnterLowPowerCallback
 866:Generated_Source\PSoC6/CapSense_Control.c ****     ****************************************************************************//**
 867:Generated_Source\PSoC6/CapSense_Control.c ****     *
 868:Generated_Source\PSoC6/CapSense_Control.c ****     * \brief
 869:Generated_Source\PSoC6/CapSense_Control.c ****     *  Handles Active to Low Power Active (LPActive) power mode transition for
 870:Generated_Source\PSoC6/CapSense_Control.c ****     *  the CapSense Component. This function is used when the major version
 871:Generated_Source\PSoC6/CapSense_Control.c ****     *  of the SysPm driver is less than 4.
 872:Generated_Source\PSoC6/CapSense_Control.c ****     *
 873:Generated_Source\PSoC6/CapSense_Control.c ****     * \details
 874:Generated_Source\PSoC6/CapSense_Control.c ****     *  This function handles the Active to LPActive power mode transition for
 875:Generated_Source\PSoC6/CapSense_Control.c ****     *  the CapSense Component.
 876:Generated_Source\PSoC6/CapSense_Control.c ****     *  Calling this function directly by application layer is not recommended.
 877:Generated_Source\PSoC6/CapSense_Control.c ****     *  Instead, Cy_SysPm_EnterLpMode() should be used for the Active to LPActive
 878:Generated_Source\PSoC6/CapSense_Control.c ****     *  power mode transition of the device.
 879:Generated_Source\PSoC6/CapSense_Control.c ****     *
 880:Generated_Source\PSoC6/CapSense_Control.c ****     *  For proper operation of the CapSense Component during the Active to
 881:Generated_Source\PSoC6/CapSense_Control.c ****     *  LPActive mode transition, a callback to this function should be registered
 882:Generated_Source\PSoC6/CapSense_Control.c ****     *  using the Cy_SysPm_RegisterCallback() function with CY_SYSPM_ENTER_LP_MODE
 883:Generated_Source\PSoC6/CapSense_Control.c ****     *  type. Once the callback is registered, this function is called by the
 884:Generated_Source\PSoC6/CapSense_Control.c ****     *  Cy_SysPm_EnterLpMode() function to prepare the Component to the device
 885:Generated_Source\PSoC6/CapSense_Control.c ****     *  power mode transition.
ARM GAS  C:\Users\kotli\AppData\Local\Temp\ccEaO44Y.s 			page 17


 886:Generated_Source\PSoC6/CapSense_Control.c ****     *
 887:Generated_Source\PSoC6/CapSense_Control.c ****     *  When this function is called with CY_SYSPM_CHECK_READY as input, this
 888:Generated_Source\PSoC6/CapSense_Control.c ****     *  function returns CY_SYSPM_SUCCESS if no scanning is in progress, otherwise
 889:Generated_Source\PSoC6/CapSense_Control.c ****     *  CY_SYSPM_FAIL is returned. If CY_SYSPM_FAIL status is returned, a device
 890:Generated_Source\PSoC6/CapSense_Control.c ****     *  cannot change the power mode without completing the current scan as
 891:Generated_Source\PSoC6/CapSense_Control.c ****     *  a transition to LPActive during the scan can disrupt the Component
 892:Generated_Source\PSoC6/CapSense_Control.c ****     *  operation.
 893:Generated_Source\PSoC6/CapSense_Control.c ****     *
 894:Generated_Source\PSoC6/CapSense_Control.c ****     * \param callbackParams
 895:Generated_Source\PSoC6/CapSense_Control.c ****     *  Refer to the description of the cy_stc_syspm_callback_params_t type in the
 896:Generated_Source\PSoC6/CapSense_Control.c ****     *  Peripheral Driver Library documentation.
 897:Generated_Source\PSoC6/CapSense_Control.c ****     *
 898:Generated_Source\PSoC6/CapSense_Control.c ****     * \return
 899:Generated_Source\PSoC6/CapSense_Control.c ****     *  Returns the status of the operation requested by the mode parameter:
 900:Generated_Source\PSoC6/CapSense_Control.c ****     *  - CY_SYSPM_SUCCESS  - LPActive power mode can be entered.
 901:Generated_Source\PSoC6/CapSense_Control.c ****     *  - CY_SYSPM_FAIL     - LPActive power mode cannot be entered.
 902:Generated_Source\PSoC6/CapSense_Control.c ****     *
 903:Generated_Source\PSoC6/CapSense_Control.c ****     *******************************************************************************/
 904:Generated_Source\PSoC6/CapSense_Control.c ****     cy_en_syspm_status_t CapSense_EnterLowPowerCallback(cy_stc_syspm_callback_params_t *callbackPar
 905:Generated_Source\PSoC6/CapSense_Control.c ****     {
 906:Generated_Source\PSoC6/CapSense_Control.c ****         return(CapSense_SwitchPowerModeCallback(callbackParams));
 907:Generated_Source\PSoC6/CapSense_Control.c ****     }
 908:Generated_Source\PSoC6/CapSense_Control.c **** 
 909:Generated_Source\PSoC6/CapSense_Control.c **** 
 910:Generated_Source\PSoC6/CapSense_Control.c ****     /*******************************************************************************
 911:Generated_Source\PSoC6/CapSense_Control.c ****     * Function Name: CapSense_ExitLowPowerCallback
 912:Generated_Source\PSoC6/CapSense_Control.c ****     ****************************************************************************//**
 913:Generated_Source\PSoC6/CapSense_Control.c ****     *
 914:Generated_Source\PSoC6/CapSense_Control.c ****     * \brief
 915:Generated_Source\PSoC6/CapSense_Control.c ****     *  Handles Low Power Active (LPActive) to Active power mode transition for
 916:Generated_Source\PSoC6/CapSense_Control.c ****     *  the CapSense Component. This function is used when the major version
 917:Generated_Source\PSoC6/CapSense_Control.c ****     *  of the SysPm driver is less than 4.
 918:Generated_Source\PSoC6/CapSense_Control.c ****     *
 919:Generated_Source\PSoC6/CapSense_Control.c ****     * \details
 920:Generated_Source\PSoC6/CapSense_Control.c ****     *  This function handles LPActive to Active power mode transition for
 921:Generated_Source\PSoC6/CapSense_Control.c ****     *  the CapSense Component.
 922:Generated_Source\PSoC6/CapSense_Control.c ****     *  Calling this function directly by application layer is not recommended.
 923:Generated_Source\PSoC6/CapSense_Control.c ****     *  Instead, Cy_SysPm_ExitLpMode() should be used for the LPActive to Active
 924:Generated_Source\PSoC6/CapSense_Control.c ****     *  power mode transition of the device.
 925:Generated_Source\PSoC6/CapSense_Control.c ****     *
 926:Generated_Source\PSoC6/CapSense_Control.c ****     *  For proper operation of the CapSense Component during the LPActive to
 927:Generated_Source\PSoC6/CapSense_Control.c ****     *  Active mode transition, a callback to this function should be registered
 928:Generated_Source\PSoC6/CapSense_Control.c ****     *  using Cy_SysPm_RegisterCallback() function with CY_SYSPM_EXIT_LP_MODE
 929:Generated_Source\PSoC6/CapSense_Control.c ****     *  type. Once the callback is registered, this function is called by the
 930:Generated_Source\PSoC6/CapSense_Control.c ****     *  Cy_SysPm_ExitLpMode() function to prepare the Component to the device
 931:Generated_Source\PSoC6/CapSense_Control.c ****     *  power mode transition.
 932:Generated_Source\PSoC6/CapSense_Control.c ****     *
 933:Generated_Source\PSoC6/CapSense_Control.c ****     *  When this function is called with CY_SYSPM_CHECK_READY as input, this
 934:Generated_Source\PSoC6/CapSense_Control.c ****     *  function returns CY_SYSPM_SUCCESS if no scanning is in progress, otherwise
 935:Generated_Source\PSoC6/CapSense_Control.c ****     *  CY_SYSPM_FAIL is returned. If CY_SYSPM_FAIL status is returned, a device
 936:Generated_Source\PSoC6/CapSense_Control.c ****     *  cannot change the power mode without completing the current scan as
 937:Generated_Source\PSoC6/CapSense_Control.c ****     *  a transition to Active during the scan can disrupt the Component
 938:Generated_Source\PSoC6/CapSense_Control.c ****     *  operation.
 939:Generated_Source\PSoC6/CapSense_Control.c **** 
 940:Generated_Source\PSoC6/CapSense_Control.c ****     * \param callbackParams
 941:Generated_Source\PSoC6/CapSense_Control.c ****     *  Refer to the description of the cy_stc_syspm_callback_params_t type in the
 942:Generated_Source\PSoC6/CapSense_Control.c ****     *  Peripheral Driver Library documentation.
ARM GAS  C:\Users\kotli\AppData\Local\Temp\ccEaO44Y.s 			page 18


 943:Generated_Source\PSoC6/CapSense_Control.c ****     *
 944:Generated_Source\PSoC6/CapSense_Control.c ****     * \return
 945:Generated_Source\PSoC6/CapSense_Control.c ****     *  Returns the status of the operation requested by the mode parameter:
 946:Generated_Source\PSoC6/CapSense_Control.c ****     *  - CY_SYSPM_SUCCESS  - Active power mode can be entered.
 947:Generated_Source\PSoC6/CapSense_Control.c ****     *  - CY_SYSPM_FAIL     - Active power mode cannot be entered.
 948:Generated_Source\PSoC6/CapSense_Control.c ****     *
 949:Generated_Source\PSoC6/CapSense_Control.c ****     *******************************************************************************/
 950:Generated_Source\PSoC6/CapSense_Control.c ****     cy_en_syspm_status_t CapSense_ExitLowPowerCallback(cy_stc_syspm_callback_params_t *callbackPara
 951:Generated_Source\PSoC6/CapSense_Control.c ****     {
 952:Generated_Source\PSoC6/CapSense_Control.c ****         return(CapSense_SwitchPowerModeCallback(callbackParams));
 953:Generated_Source\PSoC6/CapSense_Control.c ****     }
 954:Generated_Source\PSoC6/CapSense_Control.c **** 
 955:Generated_Source\PSoC6/CapSense_Control.c **** 
 956:Generated_Source\PSoC6/CapSense_Control.c ****     /*******************************************************************************
 957:Generated_Source\PSoC6/CapSense_Control.c ****     * Function Name: CapSense_SwitchPowerModeCallback
 958:Generated_Source\PSoC6/CapSense_Control.c ****     ****************************************************************************//**
 959:Generated_Source\PSoC6/CapSense_Control.c ****     *
 960:Generated_Source\PSoC6/CapSense_Control.c ****     * \brief
 961:Generated_Source\PSoC6/CapSense_Control.c ****     *  Handles the switching power mode for the CapSense Component.
 962:Generated_Source\PSoC6/CapSense_Control.c ****     *
 963:Generated_Source\PSoC6/CapSense_Control.c ****     * \details
 964:Generated_Source\PSoC6/CapSense_Control.c ****     *  This function handles swithing of system power mode.
 965:Generated_Source\PSoC6/CapSense_Control.c ****     *  When this function is called with the mode parameter set to CY_SYSPM_CHECK_READY,
 966:Generated_Source\PSoC6/CapSense_Control.c ****     *  the function returns CY_SYSPM_SUCCESS if no scanning is in progress, otherwise
 967:Generated_Source\PSoC6/CapSense_Control.c ****     *  CY_SYSPM_FAIL is returned that means that the device cannot switch the power mode
 968:Generated_Source\PSoC6/CapSense_Control.c ****     *  without finishing the current scan that is in progress (switching power mode
 969:Generated_Source\PSoC6/CapSense_Control.c ****     *  during the scan can disrupt a sensor scan result and produce an unexpected
 970:Generated_Source\PSoC6/CapSense_Control.c ****     *  behavior).
 971:Generated_Source\PSoC6/CapSense_Control.c ****     *
 972:Generated_Source\PSoC6/CapSense_Control.c ****     * \param callbackParams
 973:Generated_Source\PSoC6/CapSense_Control.c ****     *  Refer to the description of the cy_stc_syspm_callback_params_t type.
 974:Generated_Source\PSoC6/CapSense_Control.c ****     *
 975:Generated_Source\PSoC6/CapSense_Control.c ****     * \return
 976:Generated_Source\PSoC6/CapSense_Control.c ****     *  Returns the status of the operation requeted by mode parameter:
 977:Generated_Source\PSoC6/CapSense_Control.c ****     *  - CY_SYSPM_SUCCESS  - Switching power mode can be done
 978:Generated_Source\PSoC6/CapSense_Control.c ****     *  - CY_SYSPM_FAIL     - Switching power mode cannot be done.
 979:Generated_Source\PSoC6/CapSense_Control.c ****     *
 980:Generated_Source\PSoC6/CapSense_Control.c ****     *******************************************************************************/
 981:Generated_Source\PSoC6/CapSense_Control.c ****     static cy_en_syspm_status_t CapSense_SwitchPowerModeCallback(cy_stc_syspm_callback_params_t *ca
 982:Generated_Source\PSoC6/CapSense_Control.c ****     {
  28              		.loc 1 982 0
  29              		.cfi_startproc
  30              		@ args = 0, pretend = 0, frame = 0
  31              		@ frame_needed = 0, uses_anonymous_args = 0
  32              	.LVL0:
  33 0000 08B5     		push	{r3, lr}
  34              		.cfi_def_cfa_offset 8
  35              		.cfi_offset 3, -8
  36              		.cfi_offset 14, -4
  37              	.LVL1:
 983:Generated_Source\PSoC6/CapSense_Control.c ****         cy_en_syspm_status_t retVal = CY_SYSPM_SUCCESS;
 984:Generated_Source\PSoC6/CapSense_Control.c **** 
 985:Generated_Source\PSoC6/CapSense_Control.c ****         #if (0u != CapSense_ADC_EN)
 986:Generated_Source\PSoC6/CapSense_Control.c ****             uint8 temp;
 987:Generated_Source\PSoC6/CapSense_Control.c ****         #endif /* (0u != CapSense_ADC_EN) */
 988:Generated_Source\PSoC6/CapSense_Control.c **** 
 989:Generated_Source\PSoC6/CapSense_Control.c ****         switch(callbackParams->mode)
ARM GAS  C:\Users\kotli\AppData\Local\Temp\ccEaO44Y.s 			page 19


  38              		.loc 1 989 0
  39 0002 0378     		ldrb	r3, [r0]	@ zero_extendqisi2
  40 0004 012B     		cmp	r3, #1
  41 0006 03D1     		bne	.L6
 990:Generated_Source\PSoC6/CapSense_Control.c ****         {
 991:Generated_Source\PSoC6/CapSense_Control.c ****         case (CY_SYSPM_CHECK_READY):
 992:Generated_Source\PSoC6/CapSense_Control.c ****             if (CapSense_NOT_BUSY != CapSense_IsBusy())
  42              		.loc 1 992 0
  43 0008 FFF7FEFF 		bl	CapSense_IsBusy
  44              	.LVL2:
  45 000c 10B9     		cbnz	r0, .L5
  46 000e 08BD     		pop	{r3, pc}
  47              	.LVL3:
  48              	.L6:
 983:Generated_Source\PSoC6/CapSense_Control.c ****         cy_en_syspm_status_t retVal = CY_SYSPM_SUCCESS;
  49              		.loc 1 983 0
  50 0010 0020     		movs	r0, #0
  51              	.LVL4:
  52 0012 08BD     		pop	{r3, pc}
  53              	.L5:
 993:Generated_Source\PSoC6/CapSense_Control.c ****             {
 994:Generated_Source\PSoC6/CapSense_Control.c ****                 /* Scanning in progress */
 995:Generated_Source\PSoC6/CapSense_Control.c ****                 retVal = CY_SYSPM_FAIL;
  54              		.loc 1 995 0
  55 0014 0048     		ldr	r0, .L8
  56              	.LVL5:
 996:Generated_Source\PSoC6/CapSense_Control.c ****             }
 997:Generated_Source\PSoC6/CapSense_Control.c ****             #if (0u != CapSense_ADC_EN)
 998:Generated_Source\PSoC6/CapSense_Control.c ****                 temp = CapSense_AdcIsBusy();
 999:Generated_Source\PSoC6/CapSense_Control.c ****                 if ((CapSense_AdcSTATUS_IDLE != temp) &&
1000:Generated_Source\PSoC6/CapSense_Control.c ****                     (CapSense_AdcSTATUS_OVERFLOW != temp))
1001:Generated_Source\PSoC6/CapSense_Control.c ****                 {
1002:Generated_Source\PSoC6/CapSense_Control.c ****                     /* Scanning in progress */
1003:Generated_Source\PSoC6/CapSense_Control.c ****                     retVal = CY_SYSPM_FAIL;
1004:Generated_Source\PSoC6/CapSense_Control.c ****                 }
1005:Generated_Source\PSoC6/CapSense_Control.c ****             #endif /* (0u != CapSense_ADC_EN) */
1006:Generated_Source\PSoC6/CapSense_Control.c ****             break;
1007:Generated_Source\PSoC6/CapSense_Control.c **** 
1008:Generated_Source\PSoC6/CapSense_Control.c ****         default:
1009:Generated_Source\PSoC6/CapSense_Control.c ****             break;
1010:Generated_Source\PSoC6/CapSense_Control.c ****         }
1011:Generated_Source\PSoC6/CapSense_Control.c **** 
1012:Generated_Source\PSoC6/CapSense_Control.c ****         return(retVal);
1013:Generated_Source\PSoC6/CapSense_Control.c ****     }
  57              		.loc 1 1013 0
  58 0016 08BD     		pop	{r3, pc}
  59              	.L9:
  60              		.align	2
  61              	.L8:
  62 0018 FF004200 		.word	4325631
  63              		.cfi_endproc
  64              	.LFE269:
  65              		.size	CapSense_SwitchPowerModeCallback, .-CapSense_SwitchPowerModeCallback
  66              		.section	.text.CapSense_Initialize,"ax",%progbits
  67              		.align	2
  68              		.global	CapSense_Initialize
  69              		.thumb
ARM GAS  C:\Users\kotli\AppData\Local\Temp\ccEaO44Y.s 			page 20


  70              		.thumb_func
  71              		.type	CapSense_Initialize, %function
  72              	CapSense_Initialize:
  73              	.LFB257:
 204:Generated_Source\PSoC6/CapSense_Control.c ****     cy_status result;
  74              		.loc 1 204 0
  75              		.cfi_startproc
  76              		@ args = 0, pretend = 0, frame = 0
  77              		@ frame_needed = 0, uses_anonymous_args = 0
  78 0000 08B5     		push	{r3, lr}
  79              		.cfi_def_cfa_offset 8
  80              		.cfi_offset 3, -8
  81              		.cfi_offset 14, -4
 208:Generated_Source\PSoC6/CapSense_Control.c ****     {
  82              		.loc 1 208 0
  83 0002 074B     		ldr	r3, .L13
  84 0004 1B78     		ldrb	r3, [r3]	@ zero_extendqisi2
  85 0006 33B9     		cbnz	r3, .L11
 210:Generated_Source\PSoC6/CapSense_Control.c ****         CapSense_TuInitialize();
  86              		.loc 1 210 0
  87 0008 FFF7FEFF 		bl	CapSense_DsInitialize
  88              	.LVL6:
 211:Generated_Source\PSoC6/CapSense_Control.c ****         CapSense_InitVar = CapSense_INIT_DONE;
  89              		.loc 1 211 0
  90 000c FFF7FEFF 		bl	CapSense_TuInitialize
  91              	.LVL7:
 212:Generated_Source\PSoC6/CapSense_Control.c ****     }
  92              		.loc 1 212 0
  93 0010 0122     		movs	r2, #1
  94 0012 034B     		ldr	r3, .L13
  95 0014 1A70     		strb	r2, [r3]
  96              	.L11:
 215:Generated_Source\PSoC6/CapSense_Control.c **** 
  97              		.loc 1 215 0
  98 0016 FFF7FEFF 		bl	CapSense_DpInitialize
  99              	.LVL8:
 217:Generated_Source\PSoC6/CapSense_Control.c **** 
 100              		.loc 1 217 0
 101 001a FFF7FEFF 		bl	CapSense_SsInitialize
 102              	.LVL9:
 220:Generated_Source\PSoC6/CapSense_Control.c **** 
 103              		.loc 1 220 0
 104 001e 08BD     		pop	{r3, pc}
 105              	.L14:
 106              		.align	2
 107              	.L13:
 108 0020 00000000 		.word	.LANCHOR0
 109              		.cfi_endproc
 110              	.LFE257:
 111              		.size	CapSense_Initialize, .-CapSense_Initialize
 112              		.section	.text.CapSense_Start,"ax",%progbits
 113              		.align	2
 114              		.global	CapSense_Start
 115              		.thumb
 116              		.thumb_func
 117              		.type	CapSense_Start, %function
 118              	CapSense_Start:
ARM GAS  C:\Users\kotli\AppData\Local\Temp\ccEaO44Y.s 			page 21


 119              	.LFB256:
 128:Generated_Source\PSoC6/CapSense_Control.c ****     cy_status result;
 120              		.loc 1 128 0
 121              		.cfi_startproc
 122              		@ args = 0, pretend = 0, frame = 0
 123              		@ frame_needed = 0, uses_anonymous_args = 0
 124 0000 10B5     		push	{r4, lr}
 125              		.cfi_def_cfa_offset 8
 126              		.cfi_offset 4, -8
 127              		.cfi_offset 14, -4
 132:Generated_Source\PSoC6/CapSense_Control.c **** 
 128              		.loc 1 132 0
 129 0002 FFF7FEFF 		bl	CapSense_Initialize
 130              	.LVL10:
 135:Generated_Source\PSoC6/CapSense_Control.c ****         {
 131              		.loc 1 135 0
 132 0006 0446     		mov	r4, r0
 133 0008 10B9     		cbnz	r0, .L16
 137:Generated_Source\PSoC6/CapSense_Control.c ****         }
 134              		.loc 1 137 0
 135 000a FFF7FEFF 		bl	CapSense_SsAutoTune
 136              	.LVL11:
 137 000e 0446     		mov	r4, r0
 138              	.LVL12:
 139              	.L16:
 149:Generated_Source\PSoC6/CapSense_Control.c ****     {
 140              		.loc 1 149 0
 141 0010 14B9     		cbnz	r4, .L18
 151:Generated_Source\PSoC6/CapSense_Control.c ****     }
 142              		.loc 1 151 0
 143 0012 FFF7FEFF 		bl	CapSense_ScanAllWidgets
 144              	.LVL13:
 145 0016 0446     		mov	r4, r0
 146              	.LVL14:
 147              	.L18:
 154:Generated_Source\PSoC6/CapSense_Control.c **** 
 148              		.loc 1 154 0 discriminator 1
 149 0018 FFF7FEFF 		bl	CapSense_IsBusy
 150              	.LVL15:
 151 001c 0028     		cmp	r0, #0
 152 001e FBD1     		bne	.L18
 156:Generated_Source\PSoC6/CapSense_Control.c ****     CapSense_InitializeAllBaselines();
 153              		.loc 1 156 0
 154 0020 FFF7FEFF 		bl	CapSense_FtInitialize
 155              	.LVL16:
 157:Generated_Source\PSoC6/CapSense_Control.c **** 
 156              		.loc 1 157 0
 157 0024 FFF7FEFF 		bl	CapSense_InitializeAllBaselines
 158              	.LVL17:
 178:Generated_Source\PSoC6/CapSense_Control.c **** 
 159              		.loc 1 178 0
 160 0028 2046     		mov	r0, r4
 161 002a 10BD     		pop	{r4, pc}
 162              		.cfi_endproc
 163              	.LFE256:
 164              		.size	CapSense_Start, .-CapSense_Start
 165              		.section	.text.CapSense_Stop,"ax",%progbits
ARM GAS  C:\Users\kotli\AppData\Local\Temp\ccEaO44Y.s 			page 22


 166              		.align	2
 167              		.global	CapSense_Stop
 168              		.thumb
 169              		.thumb_func
 170              		.type	CapSense_Stop, %function
 171              	CapSense_Stop:
 172              	.LFB258:
 246:Generated_Source\PSoC6/CapSense_Control.c ****     cy_status result = CY_RET_SUCCESS;
 173              		.loc 1 246 0
 174              		.cfi_startproc
 175              		@ args = 0, pretend = 0, frame = 0
 176              		@ frame_needed = 0, uses_anonymous_args = 0
 177              		@ link register save eliminated.
 178              	.LVL18:
 257:Generated_Source\PSoC6/CapSense_Control.c **** 
 179              		.loc 1 257 0
 180 0000 0020     		movs	r0, #0
 181 0002 014B     		ldr	r3, .L21
 182 0004 1870     		strb	r0, [r3]
 260:Generated_Source\PSoC6/CapSense_Control.c **** 
 183              		.loc 1 260 0
 184 0006 7047     		bx	lr
 185              	.L22:
 186              		.align	2
 187              	.L21:
 188 0008 00000000 		.word	.LANCHOR0
 189              		.cfi_endproc
 190              	.LFE258:
 191              		.size	CapSense_Stop, .-CapSense_Stop
 192              		.section	.text.CapSense_Resume,"ax",%progbits
 193              		.align	2
 194              		.global	CapSense_Resume
 195              		.thumb
 196              		.thumb_func
 197              		.type	CapSense_Resume, %function
 198              	CapSense_Resume:
 199              	.LFB259:
 283:Generated_Source\PSoC6/CapSense_Control.c ****     cy_status result;
 200              		.loc 1 283 0
 201              		.cfi_startproc
 202              		@ args = 0, pretend = 0, frame = 0
 203              		@ frame_needed = 0, uses_anonymous_args = 0
 204 0000 08B5     		push	{r3, lr}
 205              		.cfi_def_cfa_offset 8
 206              		.cfi_offset 3, -8
 207              		.cfi_offset 14, -4
 287:Generated_Source\PSoC6/CapSense_Control.c ****     {
 208              		.loc 1 287 0
 209 0002 064B     		ldr	r3, .L26
 210 0004 1B78     		ldrb	r3, [r3]	@ zero_extendqisi2
 211 0006 23B9     		cbnz	r3, .L24
 289:Generated_Source\PSoC6/CapSense_Control.c ****         CapSense_InitVar = CapSense_INIT_DONE;
 212              		.loc 1 289 0
 213 0008 FFF7FEFF 		bl	CapSense_TuInitialize
 214              	.LVL19:
 290:Generated_Source\PSoC6/CapSense_Control.c ****     }
 215              		.loc 1 290 0
ARM GAS  C:\Users\kotli\AppData\Local\Temp\ccEaO44Y.s 			page 23


 216 000c 0122     		movs	r2, #1
 217 000e 034B     		ldr	r3, .L26
 218 0010 1A70     		strb	r2, [r3]
 219              	.L24:
 292:Generated_Source\PSoC6/CapSense_Control.c **** 
 220              		.loc 1 292 0
 221 0012 FFF7FEFF 		bl	CapSense_DpInitialize
 222              	.LVL20:
 294:Generated_Source\PSoC6/CapSense_Control.c **** 
 223              		.loc 1 294 0
 224 0016 FFF7FEFF 		bl	CapSense_SsInitialize
 225              	.LVL21:
 297:Generated_Source\PSoC6/CapSense_Control.c **** 
 226              		.loc 1 297 0
 227 001a 08BD     		pop	{r3, pc}
 228              	.L27:
 229              		.align	2
 230              	.L26:
 231 001c 00000000 		.word	.LANCHOR0
 232              		.cfi_endproc
 233              	.LFE259:
 234              		.size	CapSense_Resume, .-CapSense_Resume
 235              		.section	.text.CapSense_ProcessAllWidgets,"ax",%progbits
 236              		.align	2
 237              		.global	CapSense_ProcessAllWidgets
 238              		.thumb
 239              		.thumb_func
 240              		.type	CapSense_ProcessAllWidgets, %function
 241              	CapSense_ProcessAllWidgets:
 242              	.LFB260:
 340:Generated_Source\PSoC6/CapSense_Control.c ****     uint32 wdgtId;
 243              		.loc 1 340 0
 244              		.cfi_startproc
 245              		@ args = 0, pretend = 0, frame = 0
 246              		@ frame_needed = 0, uses_anonymous_args = 0
 247 0000 70B5     		push	{r4, r5, r6, lr}
 248              		.cfi_def_cfa_offset 16
 249              		.cfi_offset 4, -16
 250              		.cfi_offset 5, -12
 251              		.cfi_offset 6, -8
 252              		.cfi_offset 14, -4
 253              	.LVL22:
 345:Generated_Source\PSoC6/CapSense_Control.c **** 
 254              		.loc 1 345 0
 255 0002 0E4D     		ldr	r5, .L33
 342:Generated_Source\PSoC6/CapSense_Control.c ****     CapSense_FLASH_WD_STRUCT const *ptrFlashWdgt;
 256              		.loc 1 342 0
 257 0004 0026     		movs	r6, #0
 347:Generated_Source\PSoC6/CapSense_Control.c ****     {
 258              		.loc 1 347 0
 259 0006 3446     		mov	r4, r6
 260 0008 14E0     		b	.L29
 261              	.LVL23:
 262              	.L31:
 349:Generated_Source\PSoC6/CapSense_Control.c ****         {
 263              		.loc 1 349 0
 264 000a 6309     		lsrs	r3, r4, #5
ARM GAS  C:\Users\kotli\AppData\Local\Temp\ccEaO44Y.s 			page 24


 265 000c 0433     		adds	r3, r3, #4
 266 000e 0C4A     		ldr	r2, .L33+4
 267 0010 52F82330 		ldr	r3, [r2, r3, lsl #2]
 268 0014 04F01F02 		and	r2, r4, #31
 269 0018 D340     		lsrs	r3, r3, r2
 270 001a 13F0010F 		tst	r3, #1
 271 001e 07D0     		beq	.L30
 355:Generated_Source\PSoC6/CapSense_Control.c ****                     CapSense_DpProcessCsdWidgetStatus(wdgtId, ptrFlashWdgt);
 272              		.loc 1 355 0
 273 0020 2846     		mov	r0, r5
 274 0022 FFF7FEFF 		bl	CapSense_DpProcessCsdWidgetRawCounts
 275              	.LVL24:
 276 0026 0646     		mov	r6, r0
 277              	.LVL25:
 356:Generated_Source\PSoC6/CapSense_Control.c ****                     break;
 278              		.loc 1 356 0
 279 0028 2946     		mov	r1, r5
 280 002a 2046     		mov	r0, r4
 281              	.LVL26:
 282 002c FFF7FEFF 		bl	CapSense_DpProcessCsdWidgetStatus
 283              	.LVL27:
 284              	.L30:
 381:Generated_Source\PSoC6/CapSense_Control.c ****     }
 285              		.loc 1 381 0 discriminator 2
 286 0030 2035     		adds	r5, r5, #32
 287              	.LVL28:
 347:Generated_Source\PSoC6/CapSense_Control.c ****     {
 288              		.loc 1 347 0 discriminator 2
 289 0032 0134     		adds	r4, r4, #1
 290              	.LVL29:
 291              	.L29:
 347:Generated_Source\PSoC6/CapSense_Control.c ****     {
 292              		.loc 1 347 0 is_stmt 0 discriminator 1
 293 0034 002C     		cmp	r4, #0
 294 0036 E8D0     		beq	.L31
 384:Generated_Source\PSoC6/CapSense_Control.c **** 
 295              		.loc 1 384 0 is_stmt 1
 296 0038 3046     		mov	r0, r6
 297 003a 70BD     		pop	{r4, r5, r6, pc}
 298              	.LVL30:
 299              	.L34:
 300              		.align	2
 301              	.L33:
 302 003c 00000000 		.word	CapSense_dsFlash
 303 0040 00000000 		.word	CapSense_dsRam
 304              		.cfi_endproc
 305              	.LFE260:
 306              		.size	CapSense_ProcessAllWidgets, .-CapSense_ProcessAllWidgets
 307              		.section	.text.CapSense_ProcessWidget,"ax",%progbits
 308              		.align	2
 309              		.global	CapSense_ProcessWidget
 310              		.thumb
 311              		.thumb_func
 312              		.type	CapSense_ProcessWidget, %function
 313              	CapSense_ProcessWidget:
 314              	.LFB261:
 428:Generated_Source\PSoC6/CapSense_Control.c ****     cy_status result = CY_RET_SUCCESS;
ARM GAS  C:\Users\kotli\AppData\Local\Temp\ccEaO44Y.s 			page 25


 315              		.loc 1 428 0
 316              		.cfi_startproc
 317              		@ args = 0, pretend = 0, frame = 0
 318              		@ frame_needed = 0, uses_anonymous_args = 0
 319              	.LVL31:
 320 0000 70B5     		push	{r4, r5, r6, lr}
 321              		.cfi_def_cfa_offset 16
 322              		.cfi_offset 4, -16
 323              		.cfi_offset 5, -12
 324              		.cfi_offset 6, -8
 325              		.cfi_offset 14, -4
 326              	.LVL32:
 432:Generated_Source\PSoC6/CapSense_Control.c ****     {
 327              		.loc 1 432 0
 328 0002 0346     		mov	r3, r0
 329 0004 08B9     		cbnz	r0, .L39
 429:Generated_Source\PSoC6/CapSense_Control.c ****     CapSense_FLASH_WD_STRUCT const *ptrFlashWdgt;
 330              		.loc 1 429 0
 331 0006 0024     		movs	r4, #0
 332 0008 00E0     		b	.L36
 333              	.L39:
 434:Generated_Source\PSoC6/CapSense_Control.c ****     }
 334              		.loc 1 434 0
 335 000a 0124     		movs	r4, #1
 336              	.L36:
 337              	.LVL33:
 437:Generated_Source\PSoC6/CapSense_Control.c ****     {
 338              		.loc 1 437 0
 339 000c 5CB9     		cbnz	r4, .L37
 437:Generated_Source\PSoC6/CapSense_Control.c ****     {
 340              		.loc 1 437 0 is_stmt 0 discriminator 1
 341 000e 5A09     		lsrs	r2, r3, #5
 342 0010 0432     		adds	r2, r2, #4
 343 0012 0C49     		ldr	r1, .L42
 344 0014 51F82220 		ldr	r2, [r1, r2, lsl #2]
 345 0018 03F01F01 		and	r1, r3, #31
 346 001c CA40     		lsrs	r2, r2, r1
 347 001e 12F0010F 		tst	r2, #1
 348 0022 00D1     		bne	.L37
 439:Generated_Source\PSoC6/CapSense_Control.c ****     }
 349              		.loc 1 439 0 is_stmt 1
 350 0024 1124     		movs	r4, #17
 351              	.LVL34:
 352              	.L37:
 442:Generated_Source\PSoC6/CapSense_Control.c ****     {
 353              		.loc 1 442 0
 354 0026 5CB9     		cbnz	r4, .L38
 355 0028 1D46     		mov	r5, r3
 444:Generated_Source\PSoC6/CapSense_Control.c **** 
 356              		.loc 1 444 0
 357 002a 074E     		ldr	r6, .L42+4
 358 002c 06EB4316 		add	r6, r6, r3, lsl #5
 359              	.LVL35:
 450:Generated_Source\PSoC6/CapSense_Control.c ****                 CapSense_DpProcessCsdWidgetStatus(widgetId, ptrFlashWdgt);
 360              		.loc 1 450 0
 361 0030 3046     		mov	r0, r6
 362              	.LVL36:
ARM GAS  C:\Users\kotli\AppData\Local\Temp\ccEaO44Y.s 			page 26


 363 0032 FFF7FEFF 		bl	CapSense_DpProcessCsdWidgetRawCounts
 364              	.LVL37:
 365 0036 0446     		mov	r4, r0
 366              	.LVL38:
 451:Generated_Source\PSoC6/CapSense_Control.c ****                 break;
 367              		.loc 1 451 0
 368 0038 3146     		mov	r1, r6
 369 003a 2846     		mov	r0, r5
 370              	.LVL39:
 371 003c FFF7FEFF 		bl	CapSense_DpProcessCsdWidgetStatus
 372              	.LVL40:
 373              	.L38:
 476:Generated_Source\PSoC6/CapSense_Control.c **** 
 374              		.loc 1 476 0
 375 0040 2046     		mov	r0, r4
 376 0042 70BD     		pop	{r4, r5, r6, pc}
 377              	.LVL41:
 378              	.L43:
 379              		.align	2
 380              	.L42:
 381 0044 00000000 		.word	CapSense_dsRam
 382 0048 00000000 		.word	CapSense_dsFlash
 383              		.cfi_endproc
 384              	.LFE261:
 385              		.size	CapSense_ProcessWidget, .-CapSense_ProcessWidget
 386              		.section	.text.CapSense_ProcessWidgetExt,"ax",%progbits
 387              		.align	2
 388              		.global	CapSense_ProcessWidgetExt
 389              		.thumb
 390              		.thumb_func
 391              		.type	CapSense_ProcessWidgetExt, %function
 392              	CapSense_ProcessWidgetExt:
 393              	.LFB262:
 542:Generated_Source\PSoC6/CapSense_Control.c ****     uint32 snsCount;
 394              		.loc 1 542 0
 395              		.cfi_startproc
 396              		@ args = 0, pretend = 0, frame = 0
 397              		@ frame_needed = 0, uses_anonymous_args = 0
 398              	.LVL42:
 399 0000 2DE9F047 		push	{r4, r5, r6, r7, r8, r9, r10, lr}
 400              		.cfi_def_cfa_offset 32
 401              		.cfi_offset 4, -32
 402              		.cfi_offset 5, -28
 403              		.cfi_offset 6, -24
 404              		.cfi_offset 7, -20
 405              		.cfi_offset 8, -16
 406              		.cfi_offset 9, -12
 407              		.cfi_offset 10, -8
 408              		.cfi_offset 14, -4
 409              	.LVL43:
 553:Generated_Source\PSoC6/CapSense_Control.c ****     {
 410              		.loc 1 553 0
 411 0004 F8B9     		cbnz	r0, .L48
 412 0006 8146     		mov	r9, r0
 413 0008 0F46     		mov	r7, r1
 555:Generated_Source\PSoC6/CapSense_Control.c ****         snsCount = CapSense_GET_SNS_CNT_BY_PTR(ptrFlashWdgt);
 414              		.loc 1 555 0
ARM GAS  C:\Users\kotli\AppData\Local\Temp\ccEaO44Y.s 			page 27


 415 000a 114E     		ldr	r6, .L50
 416 000c 06EB4016 		add	r6, r6, r0, lsl #5
 417              	.LVL44:
 556:Generated_Source\PSoC6/CapSense_Control.c ****         ptrSnsTmp = ptrFlashWdgt->ptr2SnsRam;
 418              		.loc 1 556 0
 419 0010 338B     		ldrh	r3, [r6, #24]
 420              	.LVL45:
 557:Generated_Source\PSoC6/CapSense_Control.c ****         fltrHistV.ptr = ptrFlashWdgt->ptr2FltrHistory;
 421              		.loc 1 557 0
 422 0012 B468     		ldr	r4, [r6, #8]
 423              	.LVL46:
 558:Generated_Source\PSoC6/CapSense_Control.c **** 
 424              		.loc 1 558 0
 425 0014 D6F80CA0 		ldr	r10, [r6, #12]
 426              	.LVL47:
 544:Generated_Source\PSoC6/CapSense_Control.c ****     CapSense_FLASH_WD_STRUCT const *ptrFlashWdgt;
 427              		.loc 1 544 0
 428 0018 4FF00108 		mov	r8, #1
 429 001c 08E0     		b	.L46
 430              	.LVL48:
 431              	.L47:
 573:Generated_Source\PSoC6/CapSense_Control.c **** 
 432              		.loc 1 573 0
 433 001e 3B46     		mov	r3, r7
 434 0020 5246     		mov	r2, r10
 435 0022 2146     		mov	r1, r4
 436 0024 3046     		mov	r0, r6
 437 0026 FFF7FEFF 		bl	CapSense_DpProcessCsdSensorRawCountsExt
 438              	.LVL49:
 439 002a 8046     		mov	r8, r0
 440              	.LVL50:
 583:Generated_Source\PSoC6/CapSense_Control.c ****                     CapSense_INC_FLTR_OBJ_VARIANT(isProxWdgt, fltrHistV);
 441              		.loc 1 583 0
 442 002c 0A34     		adds	r4, r4, #10
 443              	.LVL51:
 571:Generated_Source\PSoC6/CapSense_Control.c ****                 {
 444              		.loc 1 571 0
 445 002e 2B46     		mov	r3, r5
 446              	.LVL52:
 447              	.L46:
 448 0030 5D1E     		subs	r5, r3, #1
 449              	.LVL53:
 450 0032 002B     		cmp	r3, #0
 451 0034 F3D1     		bne	.L47
 587:Generated_Source\PSoC6/CapSense_Control.c ****                 {
 452              		.loc 1 587 0
 453 0036 17F0200F 		tst	r7, #32
 454 003a 06D0     		beq	.L45
 589:Generated_Source\PSoC6/CapSense_Control.c ****                 }
 455              		.loc 1 589 0
 456 003c 3146     		mov	r1, r6
 457 003e 4846     		mov	r0, r9
 458 0040 FFF7FEFF 		bl	CapSense_DpProcessCsdWidgetStatus
 459              	.LVL54:
 460 0044 01E0     		b	.L45
 461              	.LVL55:
 462              	.L48:
ARM GAS  C:\Users\kotli\AppData\Local\Temp\ccEaO44Y.s 			page 28


 544:Generated_Source\PSoC6/CapSense_Control.c ****     CapSense_FLASH_WD_STRUCT const *ptrFlashWdgt;
 463              		.loc 1 544 0
 464 0046 4FF00108 		mov	r8, #1
 465              	.LVL56:
 466              	.L45:
 645:Generated_Source\PSoC6/CapSense_Control.c **** 
 467              		.loc 1 645 0
 468 004a 4046     		mov	r0, r8
 469 004c BDE8F087 		pop	{r4, r5, r6, r7, r8, r9, r10, pc}
 470              	.LVL57:
 471              	.L51:
 472              		.align	2
 473              	.L50:
 474 0050 00000000 		.word	CapSense_dsFlash
 475              		.cfi_endproc
 476              	.LFE262:
 477              		.size	CapSense_ProcessWidgetExt, .-CapSense_ProcessWidgetExt
 478              		.section	.text.CapSense_ProcessSensorExt,"ax",%progbits
 479              		.align	2
 480              		.global	CapSense_ProcessSensorExt
 481              		.thumb
 482              		.thumb_func
 483              		.type	CapSense_ProcessSensorExt, %function
 484              	CapSense_ProcessSensorExt:
 485              	.LFB263:
 711:Generated_Source\PSoC6/CapSense_Control.c ****     cy_status result = CY_RET_BAD_PARAM;
 486              		.loc 1 711 0
 487              		.cfi_startproc
 488              		@ args = 0, pretend = 0, frame = 0
 489              		@ frame_needed = 0, uses_anonymous_args = 0
 490              	.LVL58:
 717:Generated_Source\PSoC6/CapSense_Control.c ****     {
 491              		.loc 1 717 0
 492 0000 88B9     		cbnz	r0, .L54
 711:Generated_Source\PSoC6/CapSense_Control.c ****     cy_status result = CY_RET_BAD_PARAM;
 493              		.loc 1 711 0 discriminator 1
 494 0002 38B5     		push	{r3, r4, r5, lr}
 495              		.cfi_def_cfa_offset 16
 496              		.cfi_offset 3, -16
 497              		.cfi_offset 4, -12
 498              		.cfi_offset 5, -8
 499              		.cfi_offset 14, -4
 717:Generated_Source\PSoC6/CapSense_Control.c ****     {
 500              		.loc 1 717 0 discriminator 1
 501 0004 0A4C     		ldr	r4, .L57
 502 0006 04EB4014 		add	r4, r4, r0, lsl #5
 503 000a 238B     		ldrh	r3, [r4, #24]
 504 000c 8B42     		cmp	r3, r1
 505 000e 0CD9     		bls	.L55
 506 0010 1346     		mov	r3, r2
 507              	.LVL59:
 721:Generated_Source\PSoC6/CapSense_Control.c ****         fltrHistV.ptr = ptrFlashWdgt->ptr2FltrHistory;
 508              		.loc 1 721 0
 509 0012 2046     		mov	r0, r4
 510              	.LVL60:
 723:Generated_Source\PSoC6/CapSense_Control.c ****         ptrSnsTmp += sensorId;
 511              		.loc 1 723 0
ARM GAS  C:\Users\kotli\AppData\Local\Temp\ccEaO44Y.s 			page 29


 512 0014 A568     		ldr	r5, [r4, #8]
 513              	.LVL61:
 724:Generated_Source\PSoC6/CapSense_Control.c **** 
 514              		.loc 1 724 0
 515 0016 01EB8104 		add	r4, r1, r1, lsl #2
 516 001a 6100     		lsls	r1, r4, #1
 517              	.LVL62:
 747:Generated_Source\PSoC6/CapSense_Control.c ****                 break;
 518              		.loc 1 747 0
 519 001c C268     		ldr	r2, [r0, #12]
 520              	.LVL63:
 521 001e 2944     		add	r1, r1, r5
 522              	.LVL64:
 523 0020 FFF7FEFF 		bl	CapSense_DpProcessCsdSensorRawCountsExt
 524              	.LVL65:
 748:Generated_Source\PSoC6/CapSense_Control.c ****         #endif /* #if (0u != CapSense_TOTAL_CSD_WIDGETS) */
 525              		.loc 1 748 0
 526 0024 38BD     		pop	{r3, r4, r5, pc}
 527              	.LVL66:
 528              	.L54:
 529              		.cfi_def_cfa_offset 0
 530              		.cfi_restore 3
 531              		.cfi_restore 4
 532              		.cfi_restore 5
 533              		.cfi_restore 14
 712:Generated_Source\PSoC6/CapSense_Control.c ****     CapSense_FLASH_WD_STRUCT const *ptrFlashWdgt;
 534              		.loc 1 712 0
 535 0026 0120     		movs	r0, #1
 536              	.LVL67:
 778:Generated_Source\PSoC6/CapSense_Control.c **** 
 537              		.loc 1 778 0
 538 0028 7047     		bx	lr
 539              	.LVL68:
 540              	.L55:
 541              		.cfi_def_cfa_offset 16
 542              		.cfi_offset 3, -16
 543              		.cfi_offset 4, -12
 544              		.cfi_offset 5, -8
 545              		.cfi_offset 14, -4
 712:Generated_Source\PSoC6/CapSense_Control.c ****     CapSense_FLASH_WD_STRUCT const *ptrFlashWdgt;
 546              		.loc 1 712 0
 547 002a 0120     		movs	r0, #1
 548              	.LVL69:
 778:Generated_Source\PSoC6/CapSense_Control.c **** 
 549              		.loc 1 778 0
 550 002c 38BD     		pop	{r3, r4, r5, pc}
 551              	.L58:
 552 002e 00BF     		.align	2
 553              	.L57:
 554 0030 00000000 		.word	CapSense_dsFlash
 555              		.cfi_endproc
 556              	.LFE263:
 557              		.size	CapSense_ProcessSensorExt, .-CapSense_ProcessSensorExt
 558              		.section	.text.CapSense_Sleep,"ax",%progbits
 559              		.align	2
 560              		.global	CapSense_Sleep
 561              		.thumb
ARM GAS  C:\Users\kotli\AppData\Local\Temp\ccEaO44Y.s 			page 30


 562              		.thumb_func
 563              		.type	CapSense_Sleep, %function
 564              	CapSense_Sleep:
 565              	.LFB264:
 793:Generated_Source\PSoC6/CapSense_Control.c **** }
 566              		.loc 1 793 0
 567              		.cfi_startproc
 568              		@ args = 0, pretend = 0, frame = 0
 569              		@ frame_needed = 0, uses_anonymous_args = 0
 570              		@ link register save eliminated.
 571 0000 7047     		bx	lr
 572              		.cfi_endproc
 573              	.LFE264:
 574              		.size	CapSense_Sleep, .-CapSense_Sleep
 575 0002 00BF     		.section	.text.CapSense_Wakeup,"ax",%progbits
 576              		.align	2
 577              		.global	CapSense_Wakeup
 578              		.thumb
 579              		.thumb_func
 580              		.type	CapSense_Wakeup, %function
 581              	CapSense_Wakeup:
 582              	.LFB265:
 810:Generated_Source\PSoC6/CapSense_Control.c ****     #if(CapSense_BLOCK_ANALOG_WAKEUP_DELAY_US > 0uL)
 583              		.loc 1 810 0
 584              		.cfi_startproc
 585              		@ args = 0, pretend = 0, frame = 0
 586              		@ frame_needed = 0, uses_anonymous_args = 0
 587              		@ link register save eliminated.
 588 0000 7047     		bx	lr
 589              		.cfi_endproc
 590              	.LFE265:
 591              		.size	CapSense_Wakeup, .-CapSense_Wakeup
 592 0002 00BF     		.section	.text.CapSense_DeepSleepCallback,"ax",%progbits
 593              		.align	2
 594              		.global	CapSense_DeepSleepCallback
 595              		.thumb
 596              		.thumb_func
 597              		.type	CapSense_DeepSleepCallback, %function
 598              	CapSense_DeepSleepCallback:
 599              	.LFB266:
 859:Generated_Source\PSoC6/CapSense_Control.c ****         return(CapSense_SwitchPowerModeCallback(callbackParams));
 600              		.loc 1 859 0
 601              		.cfi_startproc
 602              		@ args = 0, pretend = 0, frame = 0
 603              		@ frame_needed = 0, uses_anonymous_args = 0
 604              	.LVL70:
 859:Generated_Source\PSoC6/CapSense_Control.c ****         return(CapSense_SwitchPowerModeCallback(callbackParams));
 605              		.loc 1 859 0
 606 0000 08B5     		push	{r3, lr}
 607              		.cfi_def_cfa_offset 8
 608              		.cfi_offset 3, -8
 609              		.cfi_offset 14, -4
 860:Generated_Source\PSoC6/CapSense_Control.c ****     }
 610              		.loc 1 860 0
 611 0002 FFF7FEFF 		bl	CapSense_SwitchPowerModeCallback
 612              	.LVL71:
 861:Generated_Source\PSoC6/CapSense_Control.c **** 
ARM GAS  C:\Users\kotli\AppData\Local\Temp\ccEaO44Y.s 			page 31


 613              		.loc 1 861 0
 614 0006 08BD     		pop	{r3, pc}
 615              		.cfi_endproc
 616              	.LFE266:
 617              		.size	CapSense_DeepSleepCallback, .-CapSense_DeepSleepCallback
 618              		.section	.text.CapSense_EnterLowPowerCallback,"ax",%progbits
 619              		.align	2
 620              		.global	CapSense_EnterLowPowerCallback
 621              		.thumb
 622              		.thumb_func
 623              		.type	CapSense_EnterLowPowerCallback, %function
 624              	CapSense_EnterLowPowerCallback:
 625              	.LFB267:
 905:Generated_Source\PSoC6/CapSense_Control.c ****         return(CapSense_SwitchPowerModeCallback(callbackParams));
 626              		.loc 1 905 0
 627              		.cfi_startproc
 628              		@ args = 0, pretend = 0, frame = 0
 629              		@ frame_needed = 0, uses_anonymous_args = 0
 630              	.LVL72:
 631 0000 08B5     		push	{r3, lr}
 632              		.cfi_def_cfa_offset 8
 633              		.cfi_offset 3, -8
 634              		.cfi_offset 14, -4
 906:Generated_Source\PSoC6/CapSense_Control.c ****     }
 635              		.loc 1 906 0
 636 0002 FFF7FEFF 		bl	CapSense_SwitchPowerModeCallback
 637              	.LVL73:
 907:Generated_Source\PSoC6/CapSense_Control.c **** 
 638              		.loc 1 907 0
 639 0006 08BD     		pop	{r3, pc}
 640              		.cfi_endproc
 641              	.LFE267:
 642              		.size	CapSense_EnterLowPowerCallback, .-CapSense_EnterLowPowerCallback
 643              		.section	.text.CapSense_ExitLowPowerCallback,"ax",%progbits
 644              		.align	2
 645              		.global	CapSense_ExitLowPowerCallback
 646              		.thumb
 647              		.thumb_func
 648              		.type	CapSense_ExitLowPowerCallback, %function
 649              	CapSense_ExitLowPowerCallback:
 650              	.LFB268:
 951:Generated_Source\PSoC6/CapSense_Control.c ****         return(CapSense_SwitchPowerModeCallback(callbackParams));
 651              		.loc 1 951 0
 652              		.cfi_startproc
 653              		@ args = 0, pretend = 0, frame = 0
 654              		@ frame_needed = 0, uses_anonymous_args = 0
 655              	.LVL74:
 656 0000 08B5     		push	{r3, lr}
 657              		.cfi_def_cfa_offset 8
 658              		.cfi_offset 3, -8
 659              		.cfi_offset 14, -4
 952:Generated_Source\PSoC6/CapSense_Control.c ****     }
 660              		.loc 1 952 0
 661 0002 FFF7FEFF 		bl	CapSense_SwitchPowerModeCallback
 662              	.LVL75:
 953:Generated_Source\PSoC6/CapSense_Control.c **** 
 663              		.loc 1 953 0
ARM GAS  C:\Users\kotli\AppData\Local\Temp\ccEaO44Y.s 			page 32


 664 0006 08BD     		pop	{r3, pc}
 665              		.cfi_endproc
 666              	.LFE268:
 667              		.size	CapSense_ExitLowPowerCallback, .-CapSense_ExitLowPowerCallback
 668              		.bss
 669              		.set	.LANCHOR0,. + 0
 670              		.type	CapSense_InitVar, %object
 671              		.size	CapSense_InitVar, 1
 672              	CapSense_InitVar:
 673 0000 00       		.space	1
 674              		.text
 675              	.Letext0:
 676              		.file 2 "c:\\program files (x86)\\cypress\\psoc creator\\4.3\\psoc creator\\import\\gnu\\arm\\5.4.
 677              		.file 3 "c:\\program files (x86)\\cypress\\psoc creator\\4.3\\psoc creator\\import\\gnu\\arm\\5.4.
 678              		.file 4 "Generated_Source\\PSoC6\\pdl\\drivers/peripheral/syslib/cy_syslib.h"
 679              		.file 5 "Generated_Source\\PSoC6\\pdl\\drivers/peripheral/syspm/cy_syspm.h"
 680              		.file 6 "Generated_Source\\PSoC6\\CapSense_Configuration.h"
 681              		.file 7 "Generated_Source\\PSoC6\\CapSense_SmartSense_LL.h"
 682              		.file 8 "Generated_Source\\PSoC6\\CapSense_Structure.h"
 683              		.file 9 "Generated_Source\\PSoC6\\pdl\\cmsis/include/core_cm4.h"
 684              		.file 10 "Generated_Source\\PSoC6\\CapSense_Sensing.h"
 685              		.file 11 "Generated_Source\\PSoC6\\CapSense_Tuner.h"
 686              		.file 12 "Generated_Source\\PSoC6\\CapSense_Processing.h"
 687              		.file 13 "Generated_Source\\PSoC6\\CapSense_Filter.h"