ARM GAS  C:\Users\kotli\AppData\Local\Temp\ccopmVNj.s 			page 1


   1              		.syntax unified
   2              		.cpu cortex-m4
   3              		.eabi_attribute 27, 1
   4              		.fpu fpv4-sp-d16
   5              		.eabi_attribute 20, 1
   6              		.eabi_attribute 21, 1
   7              		.eabi_attribute 23, 3
   8              		.eabi_attribute 24, 1
   9              		.eabi_attribute 25, 1
  10              		.eabi_attribute 26, 1
  11              		.eabi_attribute 30, 1
  12              		.eabi_attribute 34, 1
  13              		.eabi_attribute 18, 4
  14              		.thumb
  15              		.syntax unified
  16              		.file	"CapSense_config_u.c"
  17              		.text
  18              	.Ltext0:
  19              		.cfi_sections	.debug_frame
  20              		.section	.text.make_sensors_data,"ax",%progbits
  21              		.align	2
  22              		.global	make_sensors_data
  23              		.thumb
  24              		.thumb_func
  25              		.type	make_sensors_data, %function
  26              	make_sensors_data:
  27              	.LFB321:
  28              		.file 1 "CapSense_config_u.c"
   1:CapSense_config_u.c **** /* ========================================
   2:CapSense_config_u.c ****  *
   3:CapSense_config_u.c ****  * Copyright YOUR COMPANY, THE YEAR
   4:CapSense_config_u.c ****  * All Rights Reserved
   5:CapSense_config_u.c ****  * UNPUBLISHED, LICENSED SOFTWARE.
   6:CapSense_config_u.c ****  *
   7:CapSense_config_u.c ****  * CONFIDENTIAL AND PROPRIETARY INFORMATION
   8:CapSense_config_u.c ****  * WHICH IS THE PROPERTY OF your company.
   9:CapSense_config_u.c ****  *
  10:CapSense_config_u.c ****  * ========================================
  11:CapSense_config_u.c **** */
  12:CapSense_config_u.c **** #include "project.h"
  13:CapSense_config_u.c **** #include "Config_u.h"
  14:CapSense_config_u.c **** #include "CapSense_config_u.h"
  15:CapSense_config_u.c **** #include <stdlib.h>
  16:CapSense_config_u.c **** #include <string.h>
  17:CapSense_config_u.c **** void make_sensors_data(void)
  18:CapSense_config_u.c **** {
  29              		.loc 1 18 0
  30              		.cfi_startproc
  31              		@ args = 0, pretend = 0, frame = 0
  32              		@ frame_needed = 0, uses_anonymous_args = 0
  33              		@ link register save eliminated.
  19:CapSense_config_u.c ****     Sensors[FIRST_lvl] = CapSense_BUTTON0_SNS0_RAW0_VALUE;
  34              		.loc 1 19 0
  35 0000 104A     		ldr	r2, .L2
  36 0002 B2F8B210 		ldrh	r1, [r2, #178]
  37 0006 104B     		ldr	r3, .L2+4
  38 0008 1960     		str	r1, [r3]
ARM GAS  C:\Users\kotli\AppData\Local\Temp\ccopmVNj.s 			page 2


  20:CapSense_config_u.c ****     Sensors[SECOND_lvl] = CapSense_BUTTON1_SNS0_RAW0_VALUE;
  39              		.loc 1 20 0
  40 000a B2F8BC10 		ldrh	r1, [r2, #188]
  41 000e 5960     		str	r1, [r3, #4]
  21:CapSense_config_u.c ****     Sensors[THIRD_lvl]= CapSense_BUTTON2_SNS0_RAW0_VALUE;
  42              		.loc 1 21 0
  43 0010 B2F8C610 		ldrh	r1, [r2, #198]
  44 0014 9960     		str	r1, [r3, #8]
  22:CapSense_config_u.c ****     Sensors[FOURTH_lvl]= CapSense_BUTTON3_SNS0_RAW0_VALUE;
  45              		.loc 1 22 0
  46 0016 B2F8D010 		ldrh	r1, [r2, #208]
  47 001a D960     		str	r1, [r3, #12]
  23:CapSense_config_u.c ****     Sensors[FIFTH_lvl]= CapSense_BUTTON4_SNS0_RAW0_VALUE;
  48              		.loc 1 23 0
  49 001c B2F8DA10 		ldrh	r1, [r2, #218]
  50 0020 1961     		str	r1, [r3, #16]
  24:CapSense_config_u.c ****     Sensors[SIXTH_lvl]= CapSense_BUTTON5_SNS0_RAW0_VALUE;
  51              		.loc 1 24 0
  52 0022 B2F8E410 		ldrh	r1, [r2, #228]
  53 0026 5961     		str	r1, [r3, #20]
  25:CapSense_config_u.c ****     Sensors[SEVENTH_lvl]= CapSense_BUTTON6_SNS0_RAW0_VALUE;
  54              		.loc 1 25 0
  55 0028 B2F8EE10 		ldrh	r1, [r2, #238]
  56 002c 9961     		str	r1, [r3, #24]
  26:CapSense_config_u.c ****     Sensors[EIGHTH_lvl]= CapSense_BUTTON7_SNS0_RAW0_VALUE;
  57              		.loc 1 26 0
  58 002e B2F8F810 		ldrh	r1, [r2, #248]
  59 0032 D961     		str	r1, [r3, #28]
  27:CapSense_config_u.c ****     Sensors[NINETH_lvl]= CapSense_BUTTON8_SNS0_RAW0_VALUE;
  60              		.loc 1 27 0
  61 0034 B2F80211 		ldrh	r1, [r2, #258]
  62 0038 1962     		str	r1, [r3, #32]
  28:CapSense_config_u.c ****     Sensors[TENTH_lvl]= CapSense_BUTTON9_SNS0_RAW0_VALUE;
  63              		.loc 1 28 0
  64 003a B2F80C21 		ldrh	r2, [r2, #268]
  65 003e 5A62     		str	r2, [r3, #36]
  66 0040 7047     		bx	lr
  67              	.L3:
  68 0042 00BF     		.align	2
  69              	.L2:
  70 0044 00000000 		.word	CapSense_dsRam
  71 0048 00000000 		.word	Sensors
  72              		.cfi_endproc
  73              	.LFE321:
  74              		.size	make_sensors_data, .-make_sensors_data
  75              		.section	.text.Find_Liquid_Level,"ax",%progbits
  76              		.align	2
  77              		.global	Find_Liquid_Level
  78              		.thumb
  79              		.thumb_func
  80              		.type	Find_Liquid_Level, %function
  81              	Find_Liquid_Level:
  82              	.LFB322:
  29:CapSense_config_u.c **** }
  30:CapSense_config_u.c **** uint32_t Find_Liquid_Level(uint32_t* data, uint32_t ADDR)
  31:CapSense_config_u.c **** {
  83              		.loc 1 31 0
ARM GAS  C:\Users\kotli\AppData\Local\Temp\ccopmVNj.s 			page 3


  84              		.cfi_startproc
  85              		@ args = 0, pretend = 0, frame = 0
  86              		@ frame_needed = 0, uses_anonymous_args = 0
  87              	.LVL0:
  88 0000 38B5     		push	{r3, r4, r5, lr}
  89              		.cfi_def_cfa_offset 16
  90              		.cfi_offset 3, -16
  91              		.cfi_offset 4, -12
  92              		.cfi_offset 5, -8
  93              		.cfi_offset 14, -4
  94              	.LVL1:
  32:CapSense_config_u.c ****     uint32_t Level = ZERO;
  33:CapSense_config_u.c ****     uint32_t DIFF[MAX_SENSOR_VALUE];
  34:CapSense_config_u.c ****     uint32_t* array = (uint32_t*)ADDR;
  35:CapSense_config_u.c ****     uint8 idx;
  36:CapSense_config_u.c ****     for(idx = ZERO; idx<MAX_SENSOR_VALUE; idx++)
  95              		.loc 1 36 0
  96 0002 0023     		movs	r3, #0
  32:CapSense_config_u.c ****     uint32_t Level = ZERO;
  97              		.loc 1 32 0
  98 0004 1C46     		mov	r4, r3
  99              		.loc 1 36 0
 100 0006 0DE0     		b	.L5
 101              	.LVL2:
 102              	.L7:
  37:CapSense_config_u.c ****     {
  38:CapSense_config_u.c ****        DIFF[idx] = data[idx]-array[idx];
 103              		.loc 1 38 0
 104 0008 50F82320 		ldr	r2, [r0, r3, lsl #2]
 105 000c 51F82350 		ldr	r5, [r1, r3, lsl #2]
 106 0010 521B     		subs	r2, r2, r5
  39:CapSense_config_u.c ****       
  40:CapSense_config_u.c ****        if((DIFF[idx] > TRESHOLD)|| (DIFF[idx] == TRESHOLD))
 107              		.loc 1 40 0
 108 0012 B2F57A6F 		cmp	r2, #4000
 109 0016 07D3     		bcc	.L6
  41:CapSense_config_u.c ****     {
  42:CapSense_config_u.c ****         Level = idx * 25u;
 110              		.loc 1 42 0
 111 0018 03EB8302 		add	r2, r3, r3, lsl #2
 112 001c 02EB8204 		add	r4, r2, r2, lsl #2
 113              	.LVL3:
  36:CapSense_config_u.c ****     {
 114              		.loc 1 36 0
 115 0020 0133     		adds	r3, r3, #1
 116              	.LVL4:
 117 0022 DBB2     		uxtb	r3, r3
 118              	.LVL5:
 119              	.L5:
  36:CapSense_config_u.c ****     {
 120              		.loc 1 36 0 is_stmt 0 discriminator 1
 121 0024 092B     		cmp	r3, #9
 122 0026 EFD9     		bls	.L7
 123              	.L6:
  43:CapSense_config_u.c ****         continue;
  44:CapSense_config_u.c ****     }
  45:CapSense_config_u.c ****     else
ARM GAS  C:\Users\kotli\AppData\Local\Temp\ccopmVNj.s 			page 4


  46:CapSense_config_u.c ****     {
  47:CapSense_config_u.c ****         break;
  48:CapSense_config_u.c ****     }
  49:CapSense_config_u.c ****     
  50:CapSense_config_u.c ****     }
  51:CapSense_config_u.c ****     free(array);
 124              		.loc 1 51 0 is_stmt 1
 125 0028 0846     		mov	r0, r1
 126              	.LVL6:
 127 002a FFF7FEFF 		bl	free
 128              	.LVL7:
  52:CapSense_config_u.c ****     return Level;
  53:CapSense_config_u.c **** }
 129              		.loc 1 53 0
 130 002e 2046     		mov	r0, r4
 131 0030 38BD     		pop	{r3, r4, r5, pc}
 132              		.cfi_endproc
 133              	.LFE322:
 134              		.size	Find_Liquid_Level, .-Find_Liquid_Level
 135              		.comm	Level,4,4
 136              		.comm	Sensors,40,4
 137 0032 00BF     		.text
 138              	.Letext0:
 139              		.file 2 "c:\\program files (x86)\\cypress\\psoc creator\\4.3\\psoc creator\\import\\gnu\\arm\\5.4.
 140              		.file 3 "c:\\program files (x86)\\cypress\\psoc creator\\4.3\\psoc creator\\import\\gnu\\arm\\5.4.
 141              		.file 4 "Generated_Source\\PSoC6\\pdl\\drivers/peripheral/syslib/cy_syslib.h"
 142              		.file 5 "Generated_Source\\PSoC6/CapSense_Configuration.h"
 143              		.file 6 "Generated_Source\\PSoC6/CapSense_Structure.h"
 144              		.file 7 "Generated_Source\\PSoC6\\pdl\\cmsis/include/core_cm4.h"
 145              		.file 8 "Config_u.h"
 146              		.file 9 "c:\\program files (x86)\\cypress\\psoc creator\\4.3\\psoc creator\\import\\gnu\\arm\\5.4.