ARM GAS  C:\Users\kotli\AppData\Local\Temp\ccJolzRf.s 			page 1


   1              		.syntax unified
   2              		.cpu cortex-m4
   3              		.eabi_attribute 27, 1
   4              		.fpu fpv4-sp-d16
   5              		.eabi_attribute 20, 1
   6              		.eabi_attribute 21, 1
   7              		.eabi_attribute 23, 3
   8              		.eabi_attribute 24, 1
   9              		.eabi_attribute 25, 1
  10              		.eabi_attribute 26, 1
  11              		.eabi_attribute 30, 1
  12              		.eabi_attribute 34, 1
  13              		.eabi_attribute 18, 4
  14              		.thumb
  15              		.syntax unified
  16              		.file	"flash_config_u.c"
  17              		.text
  18              	.Ltext0:
  19              		.cfi_sections	.debug_frame
  20              		.section	.text.free_data,"ax",%progbits
  21              		.align	2
  22              		.global	free_data
  23              		.thumb
  24              		.thumb_func
  25              		.type	free_data, %function
  26              	free_data:
  27              	.LFB321:
  28              		.file 1 "flash_config_u.c"
   1:flash_config_u.c **** /* ========================================
   2:flash_config_u.c ****  *
   3:flash_config_u.c ****  * Copyright YOUR COMPANY, THE YEAR
   4:flash_config_u.c ****  * All Rights Reserved
   5:flash_config_u.c ****  * UNPUBLISHED, LICENSED SOFTWARE.
   6:flash_config_u.c ****  *
   7:flash_config_u.c ****  * CONFIDENTIAL AND PROPRIETARY INFORMATION
   8:flash_config_u.c ****  * WHICH IS THE PROPERTY OF your company.
   9:flash_config_u.c ****  *
  10:flash_config_u.c ****  * ========================================
  11:flash_config_u.c **** */
  12:flash_config_u.c **** #include "project.h"
  13:flash_config_u.c **** #include "Config_u.h"
  14:flash_config_u.c **** #include "flash_config_u.h"
  15:flash_config_u.c **** #include <stdlib.h>
  16:flash_config_u.c **** #include <string.h>
  17:flash_config_u.c **** uint32_t* free_data(uint32_t data[MAX_SENSOR_VALUE])
  18:flash_config_u.c **** {
  29              		.loc 1 18 0
  30              		.cfi_startproc
  31              		@ args = 0, pretend = 0, frame = 0
  32              		@ frame_needed = 0, uses_anonymous_args = 0
  33              		@ link register save eliminated.
  34              	.LVL0:
  19:flash_config_u.c ****   uint8 idx;
  20:flash_config_u.c ****     for(idx = ZERO; idx<MAX_SENSOR_VALUE;idx++)
  35              		.loc 1 20 0
  36 0000 0023     		movs	r3, #0
  37 0002 04E0     		b	.L2
ARM GAS  C:\Users\kotli\AppData\Local\Temp\ccJolzRf.s 			page 2


  38              	.LVL1:
  39              	.L3:
  21:flash_config_u.c ****     {
  22:flash_config_u.c ****      data[idx]=ZERO;   
  40              		.loc 1 22 0 discriminator 3
  41 0004 0022     		movs	r2, #0
  42 0006 40F82320 		str	r2, [r0, r3, lsl #2]
  20:flash_config_u.c ****     {
  43              		.loc 1 20 0 discriminator 3
  44 000a 0133     		adds	r3, r3, #1
  45              	.LVL2:
  46 000c DBB2     		uxtb	r3, r3
  47              	.LVL3:
  48              	.L2:
  20:flash_config_u.c ****     {
  49              		.loc 1 20 0 is_stmt 0 discriminator 1
  50 000e 092B     		cmp	r3, #9
  51 0010 F8D9     		bls	.L3
  23:flash_config_u.c ****     }
  24:flash_config_u.c ****     return data;
  25:flash_config_u.c **** }
  52              		.loc 1 25 0 is_stmt 1
  53 0012 7047     		bx	lr
  54              		.cfi_endproc
  55              	.LFE321:
  56              		.size	free_data, .-free_data
  57              		.section	.text.make_data_for_flash,"ax",%progbits
  58              		.align	2
  59              		.global	make_data_for_flash
  60              		.thumb
  61              		.thumb_func
  62              		.type	make_data_for_flash, %function
  63              	make_data_for_flash:
  64              	.LFB322:
  26:flash_config_u.c **** uint32_t* make_data_for_flash(uint32_t data[MAX_SENSOR_VALUE],uint8 len)
  27:flash_config_u.c **** {
  65              		.loc 1 27 0
  66              		.cfi_startproc
  67              		@ args = 0, pretend = 0, frame = 0
  68              		@ frame_needed = 0, uses_anonymous_args = 0
  69              		@ link register save eliminated.
  70              	.LVL4:
  28:flash_config_u.c ****   uint8 idx;
  29:flash_config_u.c ****   
  30:flash_config_u.c **** for(idx=ZERO; idx<len; idx++)
  71              		.loc 1 30 0
  72 0000 0023     		movs	r3, #0
  73 0002 04E0     		b	.L5
  74              	.LVL5:
  75              	.L6:
  31:flash_config_u.c **** {
  32:flash_config_u.c ****  data[idx]=0x2b;
  76              		.loc 1 32 0 discriminator 3
  77 0004 2B22     		movs	r2, #43
  78 0006 40F82320 		str	r2, [r0, r3, lsl #2]
  30:flash_config_u.c **** {
  79              		.loc 1 30 0 discriminator 3
ARM GAS  C:\Users\kotli\AppData\Local\Temp\ccJolzRf.s 			page 3


  80 000a 0133     		adds	r3, r3, #1
  81              	.LVL6:
  82 000c DBB2     		uxtb	r3, r3
  83              	.LVL7:
  84              	.L5:
  30:flash_config_u.c **** {
  85              		.loc 1 30 0 is_stmt 0 discriminator 1
  86 000e 8B42     		cmp	r3, r1
  87 0010 F8D3     		bcc	.L6
  33:flash_config_u.c **** 
  34:flash_config_u.c **** }
  35:flash_config_u.c **** return data;
  36:flash_config_u.c **** }
  88              		.loc 1 36 0 is_stmt 1
  89 0012 7047     		bx	lr
  90              		.cfi_endproc
  91              	.LFE322:
  92              		.size	make_data_for_flash, .-make_data_for_flash
  93              		.section	.text.write_flash_data_u,"ax",%progbits
  94              		.align	2
  95              		.global	write_flash_data_u
  96              		.thumb
  97              		.thumb_func
  98              		.type	write_flash_data_u, %function
  99              	write_flash_data_u:
 100              	.LFB323:
  37:flash_config_u.c **** uint32_t* write_flash_data_u(uint32_t addr,uint32_t* data)
  38:flash_config_u.c **** {
 101              		.loc 1 38 0
 102              		.cfi_startproc
 103              		@ args = 0, pretend = 0, frame = 0
 104              		@ frame_needed = 0, uses_anonymous_args = 0
 105              	.LVL8:
 106 0000 10B5     		push	{r4, lr}
 107              		.cfi_def_cfa_offset 8
 108              		.cfi_offset 4, -8
 109              		.cfi_offset 14, -4
 110 0002 0C46     		mov	r4, r1
  39:flash_config_u.c ****      Cy_Flash_WriteRow(addr, data);
 111              		.loc 1 39 0
 112 0004 FFF7FEFF 		bl	Cy_Flash_WriteRow
 113              	.LVL9:
  40:flash_config_u.c ****      return data;
  41:flash_config_u.c **** }
 114              		.loc 1 41 0
 115 0008 2046     		mov	r0, r4
 116 000a 10BD     		pop	{r4, pc}
 117              		.cfi_endproc
 118              	.LFE323:
 119              		.size	write_flash_data_u, .-write_flash_data_u
 120              		.section	.text.write_flash_data,"ax",%progbits
 121              		.align	2
 122              		.global	write_flash_data
 123              		.thumb
 124              		.thumb_func
 125              		.type	write_flash_data, %function
 126              	write_flash_data:
ARM GAS  C:\Users\kotli\AppData\Local\Temp\ccJolzRf.s 			page 4


 127              	.LFB324:
  42:flash_config_u.c **** uint32_t* write_flash_data(uint32_t* Data)
  43:flash_config_u.c **** {
 128              		.loc 1 43 0
 129              		.cfi_startproc
 130              		@ args = 0, pretend = 0, frame = 0
 131              		@ frame_needed = 0, uses_anonymous_args = 0
 132              	.LVL10:
 133 0000 10B5     		push	{r4, lr}
 134              		.cfi_def_cfa_offset 8
 135              		.cfi_offset 4, -8
 136              		.cfi_offset 14, -4
 137 0002 0446     		mov	r4, r0
 138              	.LVL11:
  44:flash_config_u.c ****     uint8 idx;
  45:flash_config_u.c ****     for(idx=0;idx<10u;idx++)
 139              		.loc 1 45 0
 140 0004 0023     		movs	r3, #0
 141 0006 04E0     		b	.L10
 142              	.LVL12:
 143              	.L11:
  46:flash_config_u.c ****     {
  47:flash_config_u.c ****        Data[idx]=0x2b;
 144              		.loc 1 47 0 discriminator 3
 145 0008 2B22     		movs	r2, #43
 146 000a 44F82320 		str	r2, [r4, r3, lsl #2]
  45:flash_config_u.c ****     {
 147              		.loc 1 45 0 discriminator 3
 148 000e 0133     		adds	r3, r3, #1
 149              	.LVL13:
 150 0010 DBB2     		uxtb	r3, r3
 151              	.LVL14:
 152              	.L10:
  45:flash_config_u.c ****     {
 153              		.loc 1 45 0 is_stmt 0 discriminator 1
 154 0012 092B     		cmp	r3, #9
 155 0014 F8D9     		bls	.L11
  48:flash_config_u.c ****     }
  49:flash_config_u.c ****   
  50:flash_config_u.c ****      Cy_Flash_WriteRow(FLASH_ADDR, Data);
 156              		.loc 1 50 0 is_stmt 1
 157 0016 2146     		mov	r1, r4
 158 0018 4FF0A050 		mov	r0, #335544320
 159              	.LVL15:
 160 001c FFF7FEFF 		bl	Cy_Flash_WriteRow
 161              	.LVL16:
  51:flash_config_u.c ****     return Data;
  52:flash_config_u.c **** }
 162              		.loc 1 52 0
 163 0020 2046     		mov	r0, r4
 164 0022 10BD     		pop	{r4, pc}
 165              		.cfi_endproc
 166              	.LFE324:
 167              		.size	write_flash_data, .-write_flash_data
 168              		.section	.text.get_checksum,"ax",%progbits
 169              		.align	2
 170              		.global	get_checksum
ARM GAS  C:\Users\kotli\AppData\Local\Temp\ccJolzRf.s 			page 5


 171              		.thumb
 172              		.thumb_func
 173              		.type	get_checksum, %function
 174              	get_checksum:
 175              	.LFB325:
  53:flash_config_u.c **** uint32_t get_checksum(uint32_t* msg, uint32_t len)
  54:flash_config_u.c **** {
 176              		.loc 1 54 0
 177              		.cfi_startproc
 178              		@ args = 0, pretend = 0, frame = 0
 179              		@ frame_needed = 0, uses_anonymous_args = 0
 180              		@ link register save eliminated.
 181              	.LVL17:
 182 0000 10B4     		push	{r4}
 183              		.cfi_def_cfa_offset 4
 184              		.cfi_offset 4, -4
 185              	.LVL18:
  55:flash_config_u.c ****   uint8_t idx;
  56:flash_config_u.c ****   uint32_t checksum = 1;
 186              		.loc 1 56 0
 187 0002 0122     		movs	r2, #1
  57:flash_config_u.c ****     for(idx = ZERO; idx < len; idx++)
 188              		.loc 1 57 0
 189 0004 0023     		movs	r3, #0
 190 0006 04E0     		b	.L14
 191              	.LVL19:
 192              	.L15:
  58:flash_config_u.c ****     {
  59:flash_config_u.c ****      checksum ^= msg[idx];   
 193              		.loc 1 59 0 discriminator 3
 194 0008 50F82340 		ldr	r4, [r0, r3, lsl #2]
 195 000c 6240     		eors	r2, r2, r4
 196              	.LVL20:
  57:flash_config_u.c ****     for(idx = ZERO; idx < len; idx++)
 197              		.loc 1 57 0 discriminator 3
 198 000e 0133     		adds	r3, r3, #1
 199              	.LVL21:
 200 0010 DBB2     		uxtb	r3, r3
 201              	.LVL22:
 202              	.L14:
  57:flash_config_u.c ****     for(idx = ZERO; idx < len; idx++)
 203              		.loc 1 57 0 is_stmt 0 discriminator 1
 204 0012 8B42     		cmp	r3, r1
 205 0014 F8D3     		bcc	.L15
  60:flash_config_u.c ****     }
  61:flash_config_u.c ****   return checksum;
  62:flash_config_u.c **** }
 206              		.loc 1 62 0 is_stmt 1
 207 0016 1046     		mov	r0, r2
 208              	.LVL23:
 209 0018 5DF8044B 		ldr	r4, [sp], #4
 210              		.cfi_restore 4
 211              		.cfi_def_cfa_offset 0
 212 001c 7047     		bx	lr
 213              		.cfi_endproc
 214              	.LFE325:
 215              		.size	get_checksum, .-get_checksum
ARM GAS  C:\Users\kotli\AppData\Local\Temp\ccJolzRf.s 			page 6


 216              		.section	.text.eraze_flash_data,"ax",%progbits
 217              		.align	2
 218              		.global	eraze_flash_data
 219              		.thumb
 220              		.thumb_func
 221              		.type	eraze_flash_data, %function
 222              	eraze_flash_data:
 223              	.LFB326:
  63:flash_config_u.c **** void eraze_flash_data(uint32_t data)
  64:flash_config_u.c **** {
 224              		.loc 1 64 0
 225              		.cfi_startproc
 226              		@ args = 0, pretend = 0, frame = 0
 227              		@ frame_needed = 0, uses_anonymous_args = 0
 228              	.LVL24:
 229 0000 10B5     		push	{r4, lr}
 230              		.cfi_def_cfa_offset 8
 231              		.cfi_offset 4, -8
 232              		.cfi_offset 14, -4
  65:flash_config_u.c ****   uint32_t* ptr = (uint32_t*) malloc(sizeof(data));    
 233              		.loc 1 65 0
 234 0002 0420     		movs	r0, #4
 235              	.LVL25:
 236 0004 FFF7FEFF 		bl	malloc
 237              	.LVL26:
 238 0008 0446     		mov	r4, r0
 239              	.LVL27:
  66:flash_config_u.c ****   memset(ptr, ZERO, sizeof(data));
 240              		.loc 1 66 0
 241 000a 0023     		movs	r3, #0
 242 000c 0360     		str	r3, [r0]	@ unaligned
  67:flash_config_u.c ****     Cy_Flash_WriteRow(FLASH_ADDR, ptr);
 243              		.loc 1 67 0
 244 000e 0146     		mov	r1, r0
 245 0010 4FF0A050 		mov	r0, #335544320
 246              	.LVL28:
 247 0014 FFF7FEFF 		bl	Cy_Flash_WriteRow
 248              	.LVL29:
  68:flash_config_u.c ****     free(ptr);
 249              		.loc 1 68 0
 250 0018 2046     		mov	r0, r4
 251 001a FFF7FEFF 		bl	free
 252              	.LVL30:
 253 001e 10BD     		pop	{r4, pc}
 254              		.cfi_endproc
 255              	.LFE326:
 256              		.size	eraze_flash_data, .-eraze_flash_data
 257              		.text
 258              	.Letext0:
 259              		.file 2 "c:\\program files (x86)\\cypress\\psoc creator\\4.3\\psoc creator\\import\\gnu\\arm\\5.4.
 260              		.file 3 "c:\\program files (x86)\\cypress\\psoc creator\\4.3\\psoc creator\\import\\gnu\\arm\\5.4.
 261              		.file 4 "Generated_Source\\PSoC6\\pdl\\drivers/peripheral/syslib/cy_syslib.h"
 262              		.file 5 "Generated_Source\\PSoC6\\pdl\\drivers/peripheral/flash/cy_flash.h"
 263              		.file 6 "c:\\program files (x86)\\cypress\\psoc creator\\4.3\\psoc creator\\import\\gnu\\arm\\5.4.
 264              		.file 7 "Generated_Source\\PSoC6\\pdl\\cmsis/include/core_cm4.h"