ARM GAS  C:\Users\kotli\AppData\Local\Temp\ccEJhrhi.s 			page 1


   1              		.syntax unified
   2              		.cpu cortex-m4
   3              		.eabi_attribute 27, 1
   4              		.fpu fpv4-sp-d16
   5              		.eabi_attribute 20, 1
   6              		.eabi_attribute 21, 1
   7              		.eabi_attribute 23, 3
   8              		.eabi_attribute 24, 1
   9              		.eabi_attribute 25, 1
  10              		.eabi_attribute 26, 1
  11              		.eabi_attribute 30, 1
  12              		.eabi_attribute 34, 1
  13              		.eabi_attribute 18, 4
  14              		.thumb
  15              		.syntax unified
  16              		.file	"flash_config_u.c"
  17              		.text
  18              	.Ltext0:
  19              		.cfi_sections	.debug_frame
  20              		.section	.text.free_data,"ax",%progbits
  21              		.align	2
  22              		.global	free_data
  23              		.thumb
  24              		.thumb_func
  25              		.type	free_data, %function
  26              	free_data:
  27              	.LFB315:
  28              		.file 1 "..\\..\\FLASH_test\\FLASH_test.cydsn\\flash_config_u.c"
   1:..\..\FLASH_test\FLASH_test.cydsn/flash_config_u.c **** /* ========================================
   2:..\..\FLASH_test\FLASH_test.cydsn/flash_config_u.c ****  *
   3:..\..\FLASH_test\FLASH_test.cydsn/flash_config_u.c ****  * Copyright YOUR COMPANY, THE YEAR
   4:..\..\FLASH_test\FLASH_test.cydsn/flash_config_u.c ****  * All Rights Reserved
   5:..\..\FLASH_test\FLASH_test.cydsn/flash_config_u.c ****  * UNPUBLISHED, LICENSED SOFTWARE.
   6:..\..\FLASH_test\FLASH_test.cydsn/flash_config_u.c ****  *
   7:..\..\FLASH_test\FLASH_test.cydsn/flash_config_u.c ****  * CONFIDENTIAL AND PROPRIETARY INFORMATION
   8:..\..\FLASH_test\FLASH_test.cydsn/flash_config_u.c ****  * WHICH IS THE PROPERTY OF your company.
   9:..\..\FLASH_test\FLASH_test.cydsn/flash_config_u.c ****  *
  10:..\..\FLASH_test\FLASH_test.cydsn/flash_config_u.c ****  * ========================================
  11:..\..\FLASH_test\FLASH_test.cydsn/flash_config_u.c **** */
  12:..\..\FLASH_test\FLASH_test.cydsn/flash_config_u.c **** #include "project.h"
  13:..\..\FLASH_test\FLASH_test.cydsn/flash_config_u.c **** #include "Config_u.h"
  14:..\..\FLASH_test\FLASH_test.cydsn/flash_config_u.c **** #include "flash_config_u.h"
  15:..\..\FLASH_test\FLASH_test.cydsn/flash_config_u.c **** #include <stdlib.h>
  16:..\..\FLASH_test\FLASH_test.cydsn/flash_config_u.c **** #include <string.h>
  17:..\..\FLASH_test\FLASH_test.cydsn/flash_config_u.c **** uint32_t* free_data(uint32_t data[MAX_SENSOR_VALUE])
  18:..\..\FLASH_test\FLASH_test.cydsn/flash_config_u.c **** {
  29              		.loc 1 18 0
  30              		.cfi_startproc
  31              		@ args = 0, pretend = 0, frame = 0
  32              		@ frame_needed = 0, uses_anonymous_args = 0
  33              		@ link register save eliminated.
  34              	.LVL0:
  19:..\..\FLASH_test\FLASH_test.cydsn/flash_config_u.c ****   uint8 idx;
  20:..\..\FLASH_test\FLASH_test.cydsn/flash_config_u.c ****     for(idx = ZERO; idx<MAX_SENSOR_VALUE;idx++)
  35              		.loc 1 20 0
  36 0000 0023     		movs	r3, #0
  37 0002 04E0     		b	.L2
ARM GAS  C:\Users\kotli\AppData\Local\Temp\ccEJhrhi.s 			page 2


  38              	.LVL1:
  39              	.L3:
  21:..\..\FLASH_test\FLASH_test.cydsn/flash_config_u.c ****     {
  22:..\..\FLASH_test\FLASH_test.cydsn/flash_config_u.c ****      data[idx]=ZERO;   
  40              		.loc 1 22 0 discriminator 3
  41 0004 0022     		movs	r2, #0
  42 0006 40F82320 		str	r2, [r0, r3, lsl #2]
  20:..\..\FLASH_test\FLASH_test.cydsn/flash_config_u.c ****     {
  43              		.loc 1 20 0 discriminator 3
  44 000a 0133     		adds	r3, r3, #1
  45              	.LVL2:
  46 000c DBB2     		uxtb	r3, r3
  47              	.LVL3:
  48              	.L2:
  20:..\..\FLASH_test\FLASH_test.cydsn/flash_config_u.c ****     {
  49              		.loc 1 20 0 is_stmt 0 discriminator 1
  50 000e 092B     		cmp	r3, #9
  51 0010 F8D9     		bls	.L3
  23:..\..\FLASH_test\FLASH_test.cydsn/flash_config_u.c ****     }
  24:..\..\FLASH_test\FLASH_test.cydsn/flash_config_u.c ****     return data;
  25:..\..\FLASH_test\FLASH_test.cydsn/flash_config_u.c **** }
  52              		.loc 1 25 0 is_stmt 1
  53 0012 7047     		bx	lr
  54              		.cfi_endproc
  55              	.LFE315:
  56              		.size	free_data, .-free_data
  57              		.section	.text.make_data_for_flash,"ax",%progbits
  58              		.align	2
  59              		.global	make_data_for_flash
  60              		.thumb
  61              		.thumb_func
  62              		.type	make_data_for_flash, %function
  63              	make_data_for_flash:
  64              	.LFB316:
  26:..\..\FLASH_test\FLASH_test.cydsn/flash_config_u.c **** uint32_t* make_data_for_flash(uint32_t data[MAX_SENSOR_VALUE],uint8 len)
  27:..\..\FLASH_test\FLASH_test.cydsn/flash_config_u.c **** {
  65              		.loc 1 27 0
  66              		.cfi_startproc
  67              		@ args = 0, pretend = 0, frame = 0
  68              		@ frame_needed = 0, uses_anonymous_args = 0
  69              		@ link register save eliminated.
  70              	.LVL4:
  28:..\..\FLASH_test\FLASH_test.cydsn/flash_config_u.c ****   uint8 idx;
  29:..\..\FLASH_test\FLASH_test.cydsn/flash_config_u.c ****   
  30:..\..\FLASH_test\FLASH_test.cydsn/flash_config_u.c **** for(idx=ZERO; idx<len; idx++)
  71              		.loc 1 30 0
  72 0000 0023     		movs	r3, #0
  73 0002 04E0     		b	.L5
  74              	.LVL5:
  75              	.L6:
  31:..\..\FLASH_test\FLASH_test.cydsn/flash_config_u.c **** {
  32:..\..\FLASH_test\FLASH_test.cydsn/flash_config_u.c ****  data[idx]=0x2b;
  76              		.loc 1 32 0 discriminator 3
  77 0004 2B22     		movs	r2, #43
  78 0006 40F82320 		str	r2, [r0, r3, lsl #2]
  30:..\..\FLASH_test\FLASH_test.cydsn/flash_config_u.c **** {
  79              		.loc 1 30 0 discriminator 3
ARM GAS  C:\Users\kotli\AppData\Local\Temp\ccEJhrhi.s 			page 3


  80 000a 0133     		adds	r3, r3, #1
  81              	.LVL6:
  82 000c DBB2     		uxtb	r3, r3
  83              	.LVL7:
  84              	.L5:
  30:..\..\FLASH_test\FLASH_test.cydsn/flash_config_u.c **** {
  85              		.loc 1 30 0 is_stmt 0 discriminator 1
  86 000e 8B42     		cmp	r3, r1
  87 0010 F8D3     		bcc	.L6
  33:..\..\FLASH_test\FLASH_test.cydsn/flash_config_u.c **** 
  34:..\..\FLASH_test\FLASH_test.cydsn/flash_config_u.c **** }
  35:..\..\FLASH_test\FLASH_test.cydsn/flash_config_u.c **** return data;
  36:..\..\FLASH_test\FLASH_test.cydsn/flash_config_u.c **** }
  88              		.loc 1 36 0 is_stmt 1
  89 0012 7047     		bx	lr
  90              		.cfi_endproc
  91              	.LFE316:
  92              		.size	make_data_for_flash, .-make_data_for_flash
  93              		.section	.text.write_flash_data_u,"ax",%progbits
  94              		.align	2
  95              		.global	write_flash_data_u
  96              		.thumb
  97              		.thumb_func
  98              		.type	write_flash_data_u, %function
  99              	write_flash_data_u:
 100              	.LFB317:
  37:..\..\FLASH_test\FLASH_test.cydsn/flash_config_u.c **** uint32_t* write_flash_data_u(uint32_t* dataF,uint32_t* data)
  38:..\..\FLASH_test\FLASH_test.cydsn/flash_config_u.c **** {
 101              		.loc 1 38 0
 102              		.cfi_startproc
 103              		@ args = 0, pretend = 0, frame = 0
 104              		@ frame_needed = 0, uses_anonymous_args = 0
 105              	.LVL8:
 106 0000 10B5     		push	{r4, lr}
 107              		.cfi_def_cfa_offset 8
 108              		.cfi_offset 4, -8
 109              		.cfi_offset 14, -4
 110 0002 0C46     		mov	r4, r1
  39:..\..\FLASH_test\FLASH_test.cydsn/flash_config_u.c ****      Cy_Flash_WriteRow((uint32_t)dataF,(const uint32_t*) data);
 111              		.loc 1 39 0
 112 0004 FFF7FEFF 		bl	Cy_Flash_WriteRow
 113              	.LVL9:
  40:..\..\FLASH_test\FLASH_test.cydsn/flash_config_u.c ****      return data;
  41:..\..\FLASH_test\FLASH_test.cydsn/flash_config_u.c **** }
 114              		.loc 1 41 0
 115 0008 2046     		mov	r0, r4
 116 000a 10BD     		pop	{r4, pc}
 117              		.cfi_endproc
 118              	.LFE317:
 119              		.size	write_flash_data_u, .-write_flash_data_u
 120              		.section	.text.write_flash_data,"ax",%progbits
 121              		.align	2
 122              		.global	write_flash_data
 123              		.thumb
 124              		.thumb_func
 125              		.type	write_flash_data, %function
 126              	write_flash_data:
ARM GAS  C:\Users\kotli\AppData\Local\Temp\ccEJhrhi.s 			page 4


 127              	.LFB318:
  42:..\..\FLASH_test\FLASH_test.cydsn/flash_config_u.c **** uint32_t* write_flash_data(uint32_t* Data)
  43:..\..\FLASH_test\FLASH_test.cydsn/flash_config_u.c **** {
 128              		.loc 1 43 0
 129              		.cfi_startproc
 130              		@ args = 0, pretend = 0, frame = 0
 131              		@ frame_needed = 0, uses_anonymous_args = 0
 132              	.LVL10:
 133 0000 10B5     		push	{r4, lr}
 134              		.cfi_def_cfa_offset 8
 135              		.cfi_offset 4, -8
 136              		.cfi_offset 14, -4
 137 0002 0446     		mov	r4, r0
 138              	.LVL11:
  44:..\..\FLASH_test\FLASH_test.cydsn/flash_config_u.c ****     uint8 idx;
  45:..\..\FLASH_test\FLASH_test.cydsn/flash_config_u.c ****     for(idx=0;idx<10u;idx++)
 139              		.loc 1 45 0
 140 0004 0023     		movs	r3, #0
 141 0006 04E0     		b	.L10
 142              	.LVL12:
 143              	.L11:
  46:..\..\FLASH_test\FLASH_test.cydsn/flash_config_u.c ****     {
  47:..\..\FLASH_test\FLASH_test.cydsn/flash_config_u.c ****        Data[idx]=0x2b;
 144              		.loc 1 47 0 discriminator 3
 145 0008 2B22     		movs	r2, #43
 146 000a 44F82320 		str	r2, [r4, r3, lsl #2]
  45:..\..\FLASH_test\FLASH_test.cydsn/flash_config_u.c ****     {
 147              		.loc 1 45 0 discriminator 3
 148 000e 0133     		adds	r3, r3, #1
 149              	.LVL13:
 150 0010 DBB2     		uxtb	r3, r3
 151              	.LVL14:
 152              	.L10:
  45:..\..\FLASH_test\FLASH_test.cydsn/flash_config_u.c ****     {
 153              		.loc 1 45 0 is_stmt 0 discriminator 1
 154 0012 092B     		cmp	r3, #9
 155 0014 F8D9     		bls	.L11
 156              	.LVL15:
  48:..\..\FLASH_test\FLASH_test.cydsn/flash_config_u.c ****     }
  49:..\..\FLASH_test\FLASH_test.cydsn/flash_config_u.c ****     uint32_t* ptr = Data;
  50:..\..\FLASH_test\FLASH_test.cydsn/flash_config_u.c ****      Cy_Flash_WriteRow(FLASH_ADDR, ptr);
 157              		.loc 1 50 0 is_stmt 1
 158 0016 2146     		mov	r1, r4
 159 0018 4FF0A050 		mov	r0, #335544320
 160              	.LVL16:
 161 001c FFF7FEFF 		bl	Cy_Flash_WriteRow
 162              	.LVL17:
  51:..\..\FLASH_test\FLASH_test.cydsn/flash_config_u.c ****     return ptr;
  52:..\..\FLASH_test\FLASH_test.cydsn/flash_config_u.c **** }
 163              		.loc 1 52 0
 164 0020 2046     		mov	r0, r4
 165 0022 10BD     		pop	{r4, pc}
 166              		.cfi_endproc
 167              	.LFE318:
 168              		.size	write_flash_data, .-write_flash_data
 169              		.section	.text.get_checksum,"ax",%progbits
 170              		.align	2
ARM GAS  C:\Users\kotli\AppData\Local\Temp\ccEJhrhi.s 			page 5


 171              		.global	get_checksum
 172              		.thumb
 173              		.thumb_func
 174              		.type	get_checksum, %function
 175              	get_checksum:
 176              	.LFB319:
  53:..\..\FLASH_test\FLASH_test.cydsn/flash_config_u.c **** uint32_t get_checksum(uint32_t* msg, uint32_t len)
  54:..\..\FLASH_test\FLASH_test.cydsn/flash_config_u.c **** {
 177              		.loc 1 54 0
 178              		.cfi_startproc
 179              		@ args = 0, pretend = 0, frame = 0
 180              		@ frame_needed = 0, uses_anonymous_args = 0
 181              		@ link register save eliminated.
 182              	.LVL18:
 183 0000 10B4     		push	{r4}
 184              		.cfi_def_cfa_offset 4
 185              		.cfi_offset 4, -4
 186              	.LVL19:
  55:..\..\FLASH_test\FLASH_test.cydsn/flash_config_u.c ****   uint8_t idx;
  56:..\..\FLASH_test\FLASH_test.cydsn/flash_config_u.c ****   uint32_t checksum = 1;
 187              		.loc 1 56 0
 188 0002 0122     		movs	r2, #1
  57:..\..\FLASH_test\FLASH_test.cydsn/flash_config_u.c ****     for(idx = ZERO; idx < len; idx++)
 189              		.loc 1 57 0
 190 0004 0023     		movs	r3, #0
 191 0006 04E0     		b	.L14
 192              	.LVL20:
 193              	.L15:
  58:..\..\FLASH_test\FLASH_test.cydsn/flash_config_u.c ****     {
  59:..\..\FLASH_test\FLASH_test.cydsn/flash_config_u.c ****      checksum ^= msg[idx];   
 194              		.loc 1 59 0 discriminator 3
 195 0008 50F82340 		ldr	r4, [r0, r3, lsl #2]
 196 000c 6240     		eors	r2, r2, r4
 197              	.LVL21:
  57:..\..\FLASH_test\FLASH_test.cydsn/flash_config_u.c ****     for(idx = ZERO; idx < len; idx++)
 198              		.loc 1 57 0 discriminator 3
 199 000e 0133     		adds	r3, r3, #1
 200              	.LVL22:
 201 0010 DBB2     		uxtb	r3, r3
 202              	.LVL23:
 203              	.L14:
  57:..\..\FLASH_test\FLASH_test.cydsn/flash_config_u.c ****     for(idx = ZERO; idx < len; idx++)
 204              		.loc 1 57 0 is_stmt 0 discriminator 1
 205 0012 8B42     		cmp	r3, r1
 206 0014 F8D3     		bcc	.L15
  60:..\..\FLASH_test\FLASH_test.cydsn/flash_config_u.c ****     }
  61:..\..\FLASH_test\FLASH_test.cydsn/flash_config_u.c ****   return checksum;
  62:..\..\FLASH_test\FLASH_test.cydsn/flash_config_u.c **** }
 207              		.loc 1 62 0 is_stmt 1
 208 0016 1046     		mov	r0, r2
 209              	.LVL24:
 210 0018 5DF8044B 		ldr	r4, [sp], #4
 211              		.cfi_restore 4
 212              		.cfi_def_cfa_offset 0
 213 001c 7047     		bx	lr
 214              		.cfi_endproc
 215              	.LFE319:
ARM GAS  C:\Users\kotli\AppData\Local\Temp\ccEJhrhi.s 			page 6


 216              		.size	get_checksum, .-get_checksum
 217              		.section	.text.eraze_flash_data,"ax",%progbits
 218              		.align	2
 219              		.global	eraze_flash_data
 220              		.thumb
 221              		.thumb_func
 222              		.type	eraze_flash_data, %function
 223              	eraze_flash_data:
 224              	.LFB320:
  63:..\..\FLASH_test\FLASH_test.cydsn/flash_config_u.c **** void eraze_flash_data(void)
  64:..\..\FLASH_test\FLASH_test.cydsn/flash_config_u.c **** {
 225              		.loc 1 64 0
 226              		.cfi_startproc
 227              		@ args = 0, pretend = 0, frame = 0
 228              		@ frame_needed = 0, uses_anonymous_args = 0
 229 0000 10B5     		push	{r4, lr}
 230              		.cfi_def_cfa_offset 8
 231              		.cfi_offset 4, -8
 232              		.cfi_offset 14, -4
  65:..\..\FLASH_test\FLASH_test.cydsn/flash_config_u.c ****   uint32_t* ptr = (uint32_t*) malloc(0x40);    
 233              		.loc 1 65 0
 234 0002 4020     		movs	r0, #64
 235 0004 FFF7FEFF 		bl	malloc
 236              	.LVL25:
 237 0008 0446     		mov	r4, r0
 238              	.LVL26:
  66:..\..\FLASH_test\FLASH_test.cydsn/flash_config_u.c ****   memset(ptr, ZERO, 0x40);
 239              		.loc 1 66 0
 240 000a 4022     		movs	r2, #64
 241 000c 0021     		movs	r1, #0
 242 000e FFF7FEFF 		bl	memset
 243              	.LVL27:
  67:..\..\FLASH_test\FLASH_test.cydsn/flash_config_u.c ****     Cy_Flash_WriteRow(FLASH_ADDR, ptr);
 244              		.loc 1 67 0
 245 0012 2146     		mov	r1, r4
 246 0014 4FF0A050 		mov	r0, #335544320
 247 0018 FFF7FEFF 		bl	Cy_Flash_WriteRow
 248              	.LVL28:
  68:..\..\FLASH_test\FLASH_test.cydsn/flash_config_u.c ****     free(ptr);
 249              		.loc 1 68 0
 250 001c 2046     		mov	r0, r4
 251 001e FFF7FEFF 		bl	free
 252              	.LVL29:
 253 0022 10BD     		pop	{r4, pc}
 254              		.cfi_endproc
 255              	.LFE320:
 256              		.size	eraze_flash_data, .-eraze_flash_data
 257              		.text
 258              	.Letext0:
 259              		.file 2 "c:\\program files (x86)\\cypress\\psoc creator\\4.3\\psoc creator\\import\\gnu\\arm\\5.4.
 260              		.file 3 "c:\\program files (x86)\\cypress\\psoc creator\\4.3\\psoc creator\\import\\gnu\\arm\\5.4.
 261              		.file 4 "Generated_Source\\PSoC6\\pdl\\drivers/peripheral/syslib/cy_syslib.h"
 262              		.file 5 "Generated_Source\\PSoC6\\pdl\\drivers/peripheral/flash/cy_flash.h"
 263              		.file 6 "c:\\program files (x86)\\cypress\\psoc creator\\4.3\\psoc creator\\import\\gnu\\arm\\5.4.
 264              		.file 7 "Generated_Source\\PSoC6\\pdl\\cmsis/include/core_cm4.h"